	.file	"main.cc"
# GNU C++11 (Ubuntu 11.4.0-1ubuntu1~22.04) version 11.4.0 (x86_64-linux-gnu)
#	compiled by GNU C version 11.4.0, GMP version 6.2.1, MPFR version 4.1.0, MPC version 1.2.1, isl version isl-0.24-GMP

# GGC heuristics: --param ggc-min-expand=100 --param ggc-min-heapsize=131072
# options passed: -mtune=generic -march=x86-64 -std=c++11 -fasynchronous-unwind-tables -fstack-protector-strong -fstack-clash-protection -fcf-protection
	.text
	.section	.text._ZnwmPv,"axG",@progbits,_ZnwmPv,comdat
	.weak	_ZnwmPv
	.type	_ZnwmPv, @function
_ZnwmPv:
.LFB38:
	.cfi_startproc
	endbr64	
	pushq	%rbp	#
	.cfi_def_cfa_offset 16
	.cfi_offset 6, -16
	movq	%rsp, %rbp	#,
	.cfi_def_cfa_register 6
	movq	%rdi, -8(%rbp)	# D.3535, D.3535
	movq	%rsi, -16(%rbp)	# __p, __p
# /usr/include/c++/11/new:175: { return __p; }
	movq	-16(%rbp), %rax	# __p, _2
# /usr/include/c++/11/new:175: { return __p; }
	popq	%rbp	#
	.cfi_def_cfa 7, 8
	ret	
	.cfi_endproc
.LFE38:
	.size	_ZnwmPv, .-_ZnwmPv
	.section	.text._ZdlPvS_,"axG",@progbits,_ZdlPvS_,comdat
	.weak	_ZdlPvS_
	.type	_ZdlPvS_, @function
_ZdlPvS_:
.LFB40:
	.cfi_startproc
	endbr64	
	pushq	%rbp	#
	.cfi_def_cfa_offset 16
	.cfi_offset 6, -16
	movq	%rsp, %rbp	#,
	.cfi_def_cfa_register 6
	movq	%rdi, -8(%rbp)	# D.3543, D.3543
	movq	%rsi, -16(%rbp)	# D.3544, D.3544
# /usr/include/c++/11/new:180: inline void operator delete  (void*, void*) _GLIBCXX_USE_NOEXCEPT { }
	nop	
	popq	%rbp	#
	.cfi_def_cfa 7, 8
	ret	
	.cfi_endproc
.LFE40:
	.size	_ZdlPvS_, .-_ZdlPvS_
	.section	.rodata
	.type	_ZStL19piecewise_construct, @object
	.size	_ZStL19piecewise_construct, 1
_ZStL19piecewise_construct:
	.zero	1
	.text
	.type	_ZL18__gthread_active_pv, @function
_ZL18__gthread_active_pv:
.LFB498:
	.cfi_startproc
	pushq	%rbp	#
	.cfi_def_cfa_offset 16
	.cfi_offset 6, -16
	movq	%rsp, %rbp	#,
	.cfi_def_cfa_register 6
# /usr/include/x86_64-linux-gnu/c++/11/bits/gthr-default.h:302:   return 1;
	movl	$1, %eax	#, _1
# /usr/include/x86_64-linux-gnu/c++/11/bits/gthr-default.h:303: }
	popq	%rbp	#
	.cfi_def_cfa 7, 8
	ret	
	.cfi_endproc
.LFE498:
	.size	_ZL18__gthread_active_pv, .-_ZL18__gthread_active_pv
	.section	.text._ZL20__gthread_mutex_lockP15pthread_mutex_t,"axG",@progbits,_ZNSt5mutex4lockEv,comdat
	.type	_ZL20__gthread_mutex_lockP15pthread_mutex_t, @function
_ZL20__gthread_mutex_lockP15pthread_mutex_t:
.LFB512:
	.cfi_startproc
	pushq	%rbp	#
	.cfi_def_cfa_offset 16
	.cfi_offset 6, -16
	movq	%rsp, %rbp	#,
	.cfi_def_cfa_register 6
	subq	$16, %rsp	#,
	movq	%rdi, -8(%rbp)	# __mutex, __mutex
# /usr/include/x86_64-linux-gnu/c++/11/bits/gthr-default.h:748:   if (__gthread_active_p ())
	call	_ZL18__gthread_active_pv	#
	testl	%eax, %eax	# _1
	setne	%al	#, retval.15_6
# /usr/include/x86_64-linux-gnu/c++/11/bits/gthr-default.h:748:   if (__gthread_active_p ())
	testb	%al, %al	# retval.15_6
	je	.L7	#,
# /usr/include/x86_64-linux-gnu/c++/11/bits/gthr-default.h:749:     return __gthrw_(pthread_mutex_lock) (__mutex);
	movq	-8(%rbp), %rax	# __mutex, tmp86
	movq	%rax, %rdi	# tmp86,
	call	pthread_mutex_lock@PLT	#
# /usr/include/x86_64-linux-gnu/c++/11/bits/gthr-default.h:749:     return __gthrw_(pthread_mutex_lock) (__mutex);
	jmp	.L8	#
.L7:
# /usr/include/x86_64-linux-gnu/c++/11/bits/gthr-default.h:751:     return 0;
	movl	$0, %eax	#, _2
.L8:
# /usr/include/x86_64-linux-gnu/c++/11/bits/gthr-default.h:752: }
	leave	
	.cfi_def_cfa 7, 8
	ret	
	.cfi_endproc
.LFE512:
	.size	_ZL20__gthread_mutex_lockP15pthread_mutex_t, .-_ZL20__gthread_mutex_lockP15pthread_mutex_t
	.section	.text._ZL22__gthread_mutex_unlockP15pthread_mutex_t,"axG",@progbits,_ZNSt5mutex6unlockEv,comdat
	.type	_ZL22__gthread_mutex_unlockP15pthread_mutex_t, @function
_ZL22__gthread_mutex_unlockP15pthread_mutex_t:
.LFB515:
	.cfi_startproc
	pushq	%rbp	#
	.cfi_def_cfa_offset 16
	.cfi_offset 6, -16
	movq	%rsp, %rbp	#,
	.cfi_def_cfa_register 6
	subq	$16, %rsp	#,
	movq	%rdi, -8(%rbp)	# __mutex, __mutex
# /usr/include/x86_64-linux-gnu/c++/11/bits/gthr-default.h:778:   if (__gthread_active_p ())
	call	_ZL18__gthread_active_pv	#
	testl	%eax, %eax	# _1
	setne	%al	#, retval.20_6
# /usr/include/x86_64-linux-gnu/c++/11/bits/gthr-default.h:778:   if (__gthread_active_p ())
	testb	%al, %al	# retval.20_6
	je	.L10	#,
# /usr/include/x86_64-linux-gnu/c++/11/bits/gthr-default.h:779:     return __gthrw_(pthread_mutex_unlock) (__mutex);
	movq	-8(%rbp), %rax	# __mutex, tmp86
	movq	%rax, %rdi	# tmp86,
	call	pthread_mutex_unlock@PLT	#
# /usr/include/x86_64-linux-gnu/c++/11/bits/gthr-default.h:779:     return __gthrw_(pthread_mutex_unlock) (__mutex);
	jmp	.L11	#
.L10:
# /usr/include/x86_64-linux-gnu/c++/11/bits/gthr-default.h:781:     return 0;
	movl	$0, %eax	#, _2
.L11:
# /usr/include/x86_64-linux-gnu/c++/11/bits/gthr-default.h:782: }
	leave	
	.cfi_def_cfa 7, 8
	ret	
	.cfi_endproc
.LFE515:
	.size	_ZL22__gthread_mutex_unlockP15pthread_mutex_t, .-_ZL22__gthread_mutex_unlockP15pthread_mutex_t
	.section	.text._ZNKSt4hashIcEclEc,"axG",@progbits,_ZNKSt4hashIcEclEc,comdat
	.align 2
	.weak	_ZNKSt4hashIcEclEc
	.type	_ZNKSt4hashIcEclEc, @function
_ZNKSt4hashIcEclEc:
.LFB954:
	.cfi_startproc
	endbr64	
	pushq	%rbp	#
	.cfi_def_cfa_offset 16
	.cfi_offset 6, -16
	movq	%rsp, %rbp	#,
	.cfi_def_cfa_register 6
	movq	%rdi, -8(%rbp)	# this, this
	movl	%esi, %eax	# __val, tmp84
	movb	%al, -12(%rbp)	# tmp85, __val
# /usr/include/c++/11/bits/functional_hash.h:128:   _Cxx_hashtable_define_trivial_hash(char)
	movsbq	-12(%rbp), %rax	# __val, _2
	popq	%rbp	#
	.cfi_def_cfa 7, 8
	ret	
	.cfi_endproc
.LFE954:
	.size	_ZNKSt4hashIcEclEc, .-_ZNKSt4hashIcEclEc
	.section	.rodata
	.type	_ZStL13allocator_arg, @object
	.size	_ZStL13allocator_arg, 1
_ZStL13allocator_arg:
	.zero	1
	.type	_ZStL6ignore, @object
	.size	_ZStL6ignore, 1
_ZStL6ignore:
	.zero	1
	.section	.text._ZNSt9_Any_data9_M_accessEv,"axG",@progbits,_ZNSt9_Any_data9_M_accessEv,comdat
	.align 2
	.weak	_ZNSt9_Any_data9_M_accessEv
	.type	_ZNSt9_Any_data9_M_accessEv, @function
_ZNSt9_Any_data9_M_accessEv:
.LFB1905:
	.cfi_startproc
	endbr64	
	pushq	%rbp	#
	.cfi_def_cfa_offset 16
	.cfi_offset 6, -16
	movq	%rsp, %rbp	#,
	.cfi_def_cfa_register 6
	movq	%rdi, -8(%rbp)	# this, this
# /usr/include/c++/11/bits/std_function.h:85:     void*       _M_access()       { return &_M_pod_data[0]; }
	movq	-8(%rbp), %rax	# this, _2
# /usr/include/c++/11/bits/std_function.h:85:     void*       _M_access()       { return &_M_pod_data[0]; }
	popq	%rbp	#
	.cfi_def_cfa 7, 8
	ret	
	.cfi_endproc
.LFE1905:
	.size	_ZNSt9_Any_data9_M_accessEv, .-_ZNSt9_Any_data9_M_accessEv
	.section	.text._ZNKSt9_Any_data9_M_accessEv,"axG",@progbits,_ZNKSt9_Any_data9_M_accessEv,comdat
	.align 2
	.weak	_ZNKSt9_Any_data9_M_accessEv
	.type	_ZNKSt9_Any_data9_M_accessEv, @function
_ZNKSt9_Any_data9_M_accessEv:
.LFB1906:
	.cfi_startproc
	endbr64	
	pushq	%rbp	#
	.cfi_def_cfa_offset 16
	.cfi_offset 6, -16
	movq	%rsp, %rbp	#,
	.cfi_def_cfa_register 6
	movq	%rdi, -8(%rbp)	# this, this
# /usr/include/c++/11/bits/std_function.h:86:     const void* _M_access() const { return &_M_pod_data[0]; }
	movq	-8(%rbp), %rax	# this, _2
# /usr/include/c++/11/bits/std_function.h:86:     const void* _M_access() const { return &_M_pod_data[0]; }
	popq	%rbp	#
	.cfi_def_cfa 7, 8
	ret	
	.cfi_endproc
.LFE1906:
	.size	_ZNKSt9_Any_data9_M_accessEv, .-_ZNKSt9_Any_data9_M_accessEv
	.section	.text._ZNSt14_Function_baseD2Ev,"axG",@progbits,_ZNSt14_Function_baseD5Ev,comdat
	.align 2
	.weak	_ZNSt14_Function_baseD2Ev
	.type	_ZNSt14_Function_baseD2Ev, @function
_ZNSt14_Function_baseD2Ev:
.LFB1921:
	.cfi_startproc
	.cfi_personality 0x9b,DW.ref.__gxx_personality_v0
	.cfi_lsda 0x1b,.LLSDA1921
	endbr64	
	pushq	%rbp	#
	.cfi_def_cfa_offset 16
	.cfi_offset 6, -16
	movq	%rsp, %rbp	#,
	.cfi_def_cfa_register 6
	subq	$16, %rsp	#,
	movq	%rdi, -8(%rbp)	# this, this
# /usr/include/c++/11/bits/std_function.h:243:       if (_M_manager)
	movq	-8(%rbp), %rax	# this, tmp86
	movq	16(%rax), %rax	# this_7(D)->_M_manager, _1
# /usr/include/c++/11/bits/std_function.h:243:       if (_M_manager)
	testq	%rax, %rax	# _1
	je	.L20	#,
# /usr/include/c++/11/bits/std_function.h:244: 	_M_manager(_M_functor, _M_functor, __destroy_functor);
	movq	-8(%rbp), %rax	# this, tmp87
	movq	16(%rax), %r8	# this_7(D)->_M_manager, _2
# /usr/include/c++/11/bits/std_function.h:244: 	_M_manager(_M_functor, _M_functor, __destroy_functor);
	movq	-8(%rbp), %rcx	# this, _3
# /usr/include/c++/11/bits/std_function.h:244: 	_M_manager(_M_functor, _M_functor, __destroy_functor);
	movq	-8(%rbp), %rax	# this, _4
# /usr/include/c++/11/bits/std_function.h:244: 	_M_manager(_M_functor, _M_functor, __destroy_functor);
	movl	$3, %edx	#,
	movq	%rcx, %rsi	# _3,
	movq	%rax, %rdi	# _4,
	call	*%r8	# _2
.L20:
# /usr/include/c++/11/bits/std_function.h:245:     }
	nop	
	leave	
	.cfi_def_cfa 7, 8
	ret	
	.cfi_endproc
.LFE1921:
	.globl	__gxx_personality_v0
	.section	.gcc_except_table._ZNSt14_Function_baseD2Ev,"aG",@progbits,_ZNSt14_Function_baseD5Ev,comdat
.LLSDA1921:
	.byte	0xff
	.byte	0xff
	.byte	0x1
	.uleb128 .LLSDACSE1921-.LLSDACSB1921
.LLSDACSB1921:
.LLSDACSE1921:
	.section	.text._ZNSt14_Function_baseD2Ev,"axG",@progbits,_ZNSt14_Function_baseD5Ev,comdat
	.size	_ZNSt14_Function_baseD2Ev, .-_ZNSt14_Function_baseD2Ev
	.weak	_ZNSt14_Function_baseD1Ev
	.set	_ZNSt14_Function_baseD1Ev,_ZNSt14_Function_baseD2Ev
	.section	.text._ZNKSt14_Function_base8_M_emptyEv,"axG",@progbits,_ZNKSt14_Function_base8_M_emptyEv,comdat
	.align 2
	.weak	_ZNKSt14_Function_base8_M_emptyEv
	.type	_ZNKSt14_Function_base8_M_emptyEv, @function
_ZNKSt14_Function_base8_M_emptyEv:
.LFB1923:
	.cfi_startproc
	endbr64	
	pushq	%rbp	#
	.cfi_def_cfa_offset 16
	.cfi_offset 6, -16
	movq	%rsp, %rbp	#,
	.cfi_def_cfa_register 6
	movq	%rdi, -8(%rbp)	# this, this
# /usr/include/c++/11/bits/std_function.h:247:     bool _M_empty() const { return !_M_manager; }
	movq	-8(%rbp), %rax	# this, tmp85
	movq	16(%rax), %rax	# this_3(D)->_M_manager, _1
	testq	%rax, %rax	# _1
	sete	%al	#, _4
# /usr/include/c++/11/bits/std_function.h:247:     bool _M_empty() const { return !_M_manager; }
	popq	%rbp	#
	.cfi_def_cfa 7, 8
	ret	
	.cfi_endproc
.LFE1923:
	.size	_ZNKSt14_Function_base8_M_emptyEv, .-_ZNKSt14_Function_base8_M_emptyEv
	.local	_ZStL8__ioinit
	.comm	_ZStL8__ioinit,1,1
	.section	.text._ZNKSt6chrono8durationIlSt5ratioILl1ELl1000000000EEE5countEv,"axG",@progbits,_ZNKSt6chrono8durationIlSt5ratioILl1ELl1000000000EEE5countEv,comdat
	.align 2
	.weak	_ZNKSt6chrono8durationIlSt5ratioILl1ELl1000000000EEE5countEv
	.type	_ZNKSt6chrono8durationIlSt5ratioILl1ELl1000000000EEE5countEv, @function
_ZNKSt6chrono8durationIlSt5ratioILl1ELl1000000000EEE5countEv:
.LFB2237:
	.cfi_startproc
	endbr64	
	pushq	%rbp	#
	.cfi_def_cfa_offset 16
	.cfi_offset 6, -16
	movq	%rsp, %rbp	#,
	.cfi_def_cfa_register 6
	movq	%rdi, -8(%rbp)	# this, this
# /usr/include/c++/11/chrono:538: 	{ return __r; }
	movq	-8(%rbp), %rax	# this, tmp84
	movq	(%rax), %rax	# this_2(D)->__r, _3
# /usr/include/c++/11/chrono:538: 	{ return __r; }
	popq	%rbp	#
	.cfi_def_cfa 7, 8
	ret	
	.cfi_endproc
.LFE2237:
	.size	_ZNKSt6chrono8durationIlSt5ratioILl1ELl1000000000EEE5countEv, .-_ZNKSt6chrono8durationIlSt5ratioILl1ELl1000000000EEE5countEv
	.section	.text._ZNSt6chrono8durationIlSt5ratioILl1ELl1000000000EEEC1IlvEERKT_,"axG",@progbits,_ZNSt6chrono8durationIlSt5ratioILl1ELl1000000000EEEC1IlvEERKT_,comdat
	.align 2
	.weak	_ZNSt6chrono8durationIlSt5ratioILl1ELl1000000000EEEC1IlvEERKT_
	.type	_ZNSt6chrono8durationIlSt5ratioILl1ELl1000000000EEEC1IlvEERKT_, @function
_ZNSt6chrono8durationIlSt5ratioILl1ELl1000000000EEEC1IlvEERKT_:
.LFB2243:
	.cfi_startproc
	endbr64	
	pushq	%rbp	#
	.cfi_def_cfa_offset 16
	.cfi_offset 6, -16
	movq	%rsp, %rbp	#,
	.cfi_def_cfa_register 6
	movq	%rdi, -8(%rbp)	# this, this
	movq	%rsi, -16(%rbp)	# __rep, __rep
# /usr/include/c++/11/chrono:522: 	  : __r(static_cast<rep>(__rep)) { }
	movq	-16(%rbp), %rax	# __rep, tmp83
	movq	(%rax), %rdx	# *__rep_5(D), _1
# /usr/include/c++/11/chrono:522: 	  : __r(static_cast<rep>(__rep)) { }
	movq	-8(%rbp), %rax	# this, tmp84
	movq	%rdx, (%rax)	# _1, this_3(D)->__r
# /usr/include/c++/11/chrono:522: 	  : __r(static_cast<rep>(__rep)) { }
	nop	
	popq	%rbp	#
	.cfi_def_cfa 7, 8
	ret	
	.cfi_endproc
.LFE2243:
	.size	_ZNSt6chrono8durationIlSt5ratioILl1ELl1000000000EEEC1IlvEERKT_, .-_ZNSt6chrono8durationIlSt5ratioILl1ELl1000000000EEEC1IlvEERKT_
	.section	.text._ZNSt6chrono15duration_valuesIlE4zeroEv,"axG",@progbits,_ZNSt6chrono15duration_valuesIlE4zeroEv,comdat
	.weak	_ZNSt6chrono15duration_valuesIlE4zeroEv
	.type	_ZNSt6chrono15duration_valuesIlE4zeroEv, @function
_ZNSt6chrono15duration_valuesIlE4zeroEv:
.LFB2245:
	.cfi_startproc
	endbr64	
	pushq	%rbp	#
	.cfi_def_cfa_offset 16
	.cfi_offset 6, -16
	movq	%rsp, %rbp	#,
	.cfi_def_cfa_register 6
# /usr/include/c++/11/chrono:433: 	{ return _Rep(0); }
	movl	$0, %eax	#, _1
# /usr/include/c++/11/chrono:433: 	{ return _Rep(0); }
	popq	%rbp	#
	.cfi_def_cfa 7, 8
	ret	
	.cfi_endproc
.LFE2245:
	.size	_ZNSt6chrono15duration_valuesIlE4zeroEv, .-_ZNSt6chrono15duration_valuesIlE4zeroEv
	.section	.text._ZNSt5mutex4lockEv,"axG",@progbits,_ZNSt5mutex4lockEv,comdat
	.align 2
	.weak	_ZNSt5mutex4lockEv
	.type	_ZNSt5mutex4lockEv, @function
_ZNSt5mutex4lockEv:
.LFB2249:
	.cfi_startproc
	endbr64	
	pushq	%rbp	#
	.cfi_def_cfa_offset 16
	.cfi_offset 6, -16
	movq	%rsp, %rbp	#,
	.cfi_def_cfa_register 6
	subq	$32, %rsp	#,
	movq	%rdi, -24(%rbp)	# this, this
# /usr/include/c++/11/bits/std_mutex.h:100:       int __e = __gthread_mutex_lock(&_M_mutex);
	movq	-24(%rbp), %rax	# this, _1
	movq	%rax, %rdi	# _1,
	call	_ZL20__gthread_mutex_lockP15pthread_mutex_t	#
	movl	%eax, -4(%rbp)	# tmp83, __e
# /usr/include/c++/11/bits/std_mutex.h:103:       if (__e)
	cmpl	$0, -4(%rbp)	#, __e
	je	.L30	#,
# /usr/include/c++/11/bits/std_mutex.h:104: 	__throw_system_error(__e);
	movl	-4(%rbp), %eax	# __e, tmp84
	movl	%eax, %edi	# tmp84,
	call	_ZSt20__throw_system_errori@PLT	#
.L30:
# /usr/include/c++/11/bits/std_mutex.h:105:     }
	nop	
	leave	
	.cfi_def_cfa 7, 8
	ret	
	.cfi_endproc
.LFE2249:
	.size	_ZNSt5mutex4lockEv, .-_ZNSt5mutex4lockEv
	.section	.text._ZNSt5mutex6unlockEv,"axG",@progbits,_ZNSt5mutex6unlockEv,comdat
	.align 2
	.weak	_ZNSt5mutex6unlockEv
	.type	_ZNSt5mutex6unlockEv, @function
_ZNSt5mutex6unlockEv:
.LFB2251:
	.cfi_startproc
	endbr64	
	pushq	%rbp	#
	.cfi_def_cfa_offset 16
	.cfi_offset 6, -16
	movq	%rsp, %rbp	#,
	.cfi_def_cfa_register 6
	subq	$16, %rsp	#,
	movq	%rdi, -8(%rbp)	# this, this
# /usr/include/c++/11/bits/std_mutex.h:118:       __gthread_mutex_unlock(&_M_mutex);
	movq	-8(%rbp), %rax	# this, _1
	movq	%rax, %rdi	# _1,
	call	_ZL22__gthread_mutex_unlockP15pthread_mutex_t	#
# /usr/include/c++/11/bits/std_mutex.h:119:     }
	nop	
	leave	
	.cfi_def_cfa 7, 8
	ret	
	.cfi_endproc
.LFE2251:
	.size	_ZNSt5mutex6unlockEv, .-_ZNSt5mutex6unlockEv
	.section	.rodata
	.type	_ZStL10defer_lock, @object
	.size	_ZStL10defer_lock, 1
_ZStL10defer_lock:
	.zero	1
	.type	_ZStL11try_to_lock, @object
	.size	_ZStL11try_to_lock, 1
_ZStL11try_to_lock:
	.zero	1
	.type	_ZStL10adopt_lock, @object
	.size	_ZStL10adopt_lock, 1
_ZStL10adopt_lock:
	.zero	1
	.section	.text._ZNSt6thread2idC2Ev,"axG",@progbits,_ZNSt6thread2idC5Ev,comdat
	.align 2
	.weak	_ZNSt6thread2idC2Ev
	.type	_ZNSt6thread2idC2Ev, @function
_ZNSt6thread2idC2Ev:
.LFB2397:
	.cfi_startproc
	endbr64	
	pushq	%rbp	#
	.cfi_def_cfa_offset 16
	.cfi_offset 6, -16
	movq	%rsp, %rbp	#,
	.cfi_def_cfa_register 6
	movq	%rdi, -8(%rbp)	# this, this
# /usr/include/c++/11/bits/std_thread.h:86:       id() noexcept : _M_thread() { }
	movq	-8(%rbp), %rax	# this, tmp82
	movq	$0, (%rax)	#, this_2(D)->_M_thread
# /usr/include/c++/11/bits/std_thread.h:86:       id() noexcept : _M_thread() { }
	nop	
	popq	%rbp	#
	.cfi_def_cfa 7, 8
	ret	
	.cfi_endproc
.LFE2397:
	.size	_ZNSt6thread2idC2Ev, .-_ZNSt6thread2idC2Ev
	.weak	_ZNSt6thread2idC1Ev
	.set	_ZNSt6thread2idC1Ev,_ZNSt6thread2idC2Ev
	.section	.text._ZNSt6threadD2Ev,"axG",@progbits,_ZNSt6threadD5Ev,comdat
	.align 2
	.weak	_ZNSt6threadD2Ev
	.type	_ZNSt6threadD2Ev, @function
_ZNSt6threadD2Ev:
.LFB2404:
	.cfi_startproc
	endbr64	
	pushq	%rbp	#
	.cfi_def_cfa_offset 16
	.cfi_offset 6, -16
	movq	%rsp, %rbp	#,
	.cfi_def_cfa_register 6
	subq	$16, %rsp	#,
	movq	%rdi, -8(%rbp)	# this, this
# /usr/include/c++/11/bits/std_thread.h:151:       if (joinable())
	movq	-8(%rbp), %rax	# this, tmp83
	movq	%rax, %rdi	# tmp83,
	call	_ZNKSt6thread8joinableEv	#
# /usr/include/c++/11/bits/std_thread.h:151:       if (joinable())
	testb	%al, %al	# retval.124_4
	je	.L35	#,
# /usr/include/c++/11/bits/std_thread.h:152: 	std::terminate();
	call	_ZSt9terminatev@PLT	#
.L35:
# /usr/include/c++/11/bits/std_thread.h:153:     }
	nop	
	leave	
	.cfi_def_cfa 7, 8
	ret	
	.cfi_endproc
.LFE2404:
	.size	_ZNSt6threadD2Ev, .-_ZNSt6threadD2Ev
	.weak	_ZNSt6threadD1Ev
	.set	_ZNSt6threadD1Ev,_ZNSt6threadD2Ev
	.section	.text._ZNKSt6thread8joinableEv,"axG",@progbits,_ZNKSt6thread8joinableEv,comdat
	.align 2
	.weak	_ZNKSt6thread8joinableEv
	.type	_ZNKSt6thread8joinableEv, @function
_ZNKSt6thread8joinableEv:
.LFB2412:
	.cfi_startproc
	endbr64	
	pushq	%rbp	#
	.cfi_def_cfa_offset 16
	.cfi_offset 6, -16
	movq	%rsp, %rbp	#,
	.cfi_def_cfa_register 6
	subq	$32, %rsp	#,
	movq	%rdi, -24(%rbp)	# this, this
# /usr/include/c++/11/bits/std_thread.h:175:     joinable() const noexcept
	movq	%fs:40, %rax	# MEM[(<address-space-1> long unsigned int *)40B], tmp89
	movq	%rax, -8(%rbp)	# tmp89, D.105974
	xorl	%eax, %eax	# tmp89
# /usr/include/c++/11/bits/std_thread.h:176:     { return !(_M_id == id()); }
	leaq	-16(%rbp), %rax	#, tmp85
	movq	%rax, %rdi	# tmp85,
	call	_ZNSt6thread2idC1Ev	#
	movq	-16(%rbp), %rax	# D.53662, tmp86
	movq	-24(%rbp), %rdx	# this, tmp87
	movq	%rax, %rsi	# tmp86,
	movq	(%rdx), %rdi	# this_4(D)->_M_id,
	call	_ZSteqNSt6thread2idES0_	#
# /usr/include/c++/11/bits/std_thread.h:176:     { return !(_M_id == id()); }
	xorl	$1, %eax	#, _6
# /usr/include/c++/11/bits/std_thread.h:176:     { return !(_M_id == id()); }
	movq	-8(%rbp), %rdx	# D.105974, tmp90
	subq	%fs:40, %rdx	# MEM[(<address-space-1> long unsigned int *)40B], tmp90
	je	.L38	#,
	call	__stack_chk_fail@PLT	#
.L38:
	leave	
	.cfi_def_cfa 7, 8
	ret	
	.cfi_endproc
.LFE2412:
	.size	_ZNKSt6thread8joinableEv, .-_ZNKSt6thread8joinableEv
	.section	.text._ZSteqNSt6thread2idES0_,"axG",@progbits,_ZSteqNSt6thread2idES0_,comdat
	.weak	_ZSteqNSt6thread2idES0_
	.type	_ZSteqNSt6thread2idES0_, @function
_ZSteqNSt6thread2idES0_:
.LFB2421:
	.cfi_startproc
	endbr64	
	pushq	%rbp	#
	.cfi_def_cfa_offset 16
	.cfi_offset 6, -16
	movq	%rsp, %rbp	#,
	.cfi_def_cfa_register 6
	movq	%rdi, -8(%rbp)	# __x, __x
	movq	%rsi, -16(%rbp)	# __y, __y
# /usr/include/c++/11/bits/std_thread.h:293:     return __x._M_thread == __y._M_thread;
	movq	-8(%rbp), %rdx	# __x._M_thread, _1
# /usr/include/c++/11/bits/std_thread.h:293:     return __x._M_thread == __y._M_thread;
	movq	-16(%rbp), %rax	# __y._M_thread, _2
	cmpq	%rax, %rdx	# _2, _1
	sete	%al	#, _4
# /usr/include/c++/11/bits/std_thread.h:294:   }
	popq	%rbp	#
	.cfi_def_cfa 7, 8
	ret	
	.cfi_endproc
.LFE2421:
	.size	_ZSteqNSt6thread2idES0_, .-_ZSteqNSt6thread2idES0_
	.section	.text._ZNSt8__detail15_Hash_node_baseC2Ev,"axG",@progbits,_ZNSt8__detail15_Hash_node_baseC5Ev,comdat
	.align 2
	.weak	_ZNSt8__detail15_Hash_node_baseC2Ev
	.type	_ZNSt8__detail15_Hash_node_baseC2Ev, @function
_ZNSt8__detail15_Hash_node_baseC2Ev:
.LFB2454:
	.cfi_startproc
	endbr64	
	pushq	%rbp	#
	.cfi_def_cfa_offset 16
	.cfi_offset 6, -16
	movq	%rsp, %rbp	#,
	.cfi_def_cfa_register 6
	movq	%rdi, -8(%rbp)	# this, this
# /usr/include/c++/11/bits/hashtable_policy.h:219:     _Hash_node_base() noexcept : _M_nxt() { }
	movq	-8(%rbp), %rax	# this, tmp82
	movq	$0, (%rax)	#, this_2(D)->_M_nxt
# /usr/include/c++/11/bits/hashtable_policy.h:219:     _Hash_node_base() noexcept : _M_nxt() { }
	nop	
	popq	%rbp	#
	.cfi_def_cfa 7, 8
	ret	
	.cfi_endproc
.LFE2454:
	.size	_ZNSt8__detail15_Hash_node_baseC2Ev, .-_ZNSt8__detail15_Hash_node_baseC2Ev
	.weak	_ZNSt8__detail15_Hash_node_baseC1Ev
	.set	_ZNSt8__detail15_Hash_node_baseC1Ev,_ZNSt8__detail15_Hash_node_baseC2Ev
	.section	.text._ZNKSt8__detail18_Mod_range_hashingclEmm,"axG",@progbits,_ZNKSt8__detail18_Mod_range_hashingclEmm,comdat
	.align 2
	.weak	_ZNKSt8__detail18_Mod_range_hashingclEmm
	.type	_ZNKSt8__detail18_Mod_range_hashingclEmm, @function
_ZNKSt8__detail18_Mod_range_hashingclEmm:
.LFB2480:
	.cfi_startproc
	endbr64	
	pushq	%rbp	#
	.cfi_def_cfa_offset 16
	.cfi_offset 6, -16
	movq	%rsp, %rbp	#,
	.cfi_def_cfa_register 6
	movq	%rdi, -8(%rbp)	# this, this
	movq	%rsi, -16(%rbp)	# __num, __num
	movq	%rdx, -24(%rbp)	# __den, __den
# /usr/include/c++/11/bits/hashtable_policy.h:430:     { return __num % __den; }
	movq	-16(%rbp), %rax	# __num, tmp84
	movl	$0, %edx	#, tmp85
	divq	-24(%rbp)	# __den
	movq	%rdx, %rax	# tmp85, _3
# /usr/include/c++/11/bits/hashtable_policy.h:430:     { return __num % __den; }
	popq	%rbp	#
	.cfi_def_cfa 7, 8
	ret	
	.cfi_endproc
.LFE2480:
	.size	_ZNKSt8__detail18_Mod_range_hashingclEmm, .-_ZNKSt8__detail18_Mod_range_hashingclEmm
	.section	.text._ZNSt8__detail20_Prime_rehash_policyC2Ef,"axG",@progbits,_ZNSt8__detail20_Prime_rehash_policyC5Ef,comdat
	.align 2
	.weak	_ZNSt8__detail20_Prime_rehash_policyC2Ef
	.type	_ZNSt8__detail20_Prime_rehash_policyC2Ef, @function
_ZNSt8__detail20_Prime_rehash_policyC2Ef:
.LFB2482:
	.cfi_startproc
	endbr64	
	pushq	%rbp	#
	.cfi_def_cfa_offset 16
	.cfi_offset 6, -16
	movq	%rsp, %rbp	#,
	.cfi_def_cfa_register 6
	movq	%rdi, -8(%rbp)	# this, this
	movss	%xmm0, -12(%rbp)	# __z, __z
# /usr/include/c++/11/bits/hashtable_policy.h:447:     : _M_max_load_factor(__z), _M_next_resize(0) { }
	movq	-8(%rbp), %rax	# this, tmp82
	movss	-12(%rbp), %xmm0	# __z, tmp83
	movss	%xmm0, (%rax)	# tmp83, this_2(D)->_M_max_load_factor
# /usr/include/c++/11/bits/hashtable_policy.h:447:     : _M_max_load_factor(__z), _M_next_resize(0) { }
	movq	-8(%rbp), %rax	# this, tmp84
	movq	$0, 8(%rax)	#, this_2(D)->_M_next_resize
# /usr/include/c++/11/bits/hashtable_policy.h:447:     : _M_max_load_factor(__z), _M_next_resize(0) { }
	nop	
	popq	%rbp	#
	.cfi_def_cfa 7, 8
	ret	
	.cfi_endproc
.LFE2482:
	.size	_ZNSt8__detail20_Prime_rehash_policyC2Ef, .-_ZNSt8__detail20_Prime_rehash_policyC2Ef
	.weak	_ZNSt8__detail20_Prime_rehash_policyC1Ef
	.set	_ZNSt8__detail20_Prime_rehash_policyC1Ef,_ZNSt8__detail20_Prime_rehash_policyC2Ef
	.section	.text._ZNKSt8__detail20_Prime_rehash_policy8_M_stateEv,"axG",@progbits,_ZNKSt8__detail20_Prime_rehash_policy8_M_stateEv,comdat
	.align 2
	.weak	_ZNKSt8__detail20_Prime_rehash_policy8_M_stateEv
	.type	_ZNKSt8__detail20_Prime_rehash_policy8_M_stateEv, @function
_ZNKSt8__detail20_Prime_rehash_policy8_M_stateEv:
.LFB2486:
	.cfi_startproc
	endbr64	
	pushq	%rbp	#
	.cfi_def_cfa_offset 16
	.cfi_offset 6, -16
	movq	%rsp, %rbp	#,
	.cfi_def_cfa_register 6
	movq	%rdi, -8(%rbp)	# this, this
# /usr/include/c++/11/bits/hashtable_policy.h:474:     { return _M_next_resize; }
	movq	-8(%rbp), %rax	# this, tmp84
	movq	8(%rax), %rax	# this_2(D)->_M_next_resize, _3
# /usr/include/c++/11/bits/hashtable_policy.h:474:     { return _M_next_resize; }
	popq	%rbp	#
	.cfi_def_cfa 7, 8
	ret	
	.cfi_endproc
.LFE2486:
	.size	_ZNKSt8__detail20_Prime_rehash_policy8_M_stateEv, .-_ZNKSt8__detail20_Prime_rehash_policy8_M_stateEv
	.section	.text._ZNSt8__detail20_Prime_rehash_policy8_M_resetEm,"axG",@progbits,_ZNSt8__detail20_Prime_rehash_policy8_M_resetEm,comdat
	.align 2
	.weak	_ZNSt8__detail20_Prime_rehash_policy8_M_resetEm
	.type	_ZNSt8__detail20_Prime_rehash_policy8_M_resetEm, @function
_ZNSt8__detail20_Prime_rehash_policy8_M_resetEm:
.LFB2488:
	.cfi_startproc
	endbr64	
	pushq	%rbp	#
	.cfi_def_cfa_offset 16
	.cfi_offset 6, -16
	movq	%rsp, %rbp	#,
	.cfi_def_cfa_register 6
	movq	%rdi, -8(%rbp)	# this, this
	movq	%rsi, -16(%rbp)	# __state, __state
# /usr/include/c++/11/bits/hashtable_policy.h:482:     { _M_next_resize = __state; }
	movq	-8(%rbp), %rax	# this, tmp82
	movq	-16(%rbp), %rdx	# __state, tmp83
	movq	%rdx, 8(%rax)	# tmp83, this_2(D)->_M_next_resize
# /usr/include/c++/11/bits/hashtable_policy.h:482:     { _M_next_resize = __state; }
	nop	
	popq	%rbp	#
	.cfi_def_cfa 7, 8
	ret	
	.cfi_endproc
.LFE2488:
	.size	_ZNSt8__detail20_Prime_rehash_policy8_M_resetEm, .-_ZNSt8__detail20_Prime_rehash_policy8_M_resetEm
	.section	.text._Z12ascii_is_inth,"axG",@progbits,_Z12ascii_is_inth,comdat
	.weak	_Z12ascii_is_inth
	.type	_Z12ascii_is_inth, @function
_Z12ascii_is_inth:
.LFB2834:
	.cfi_startproc
	endbr64	
	pushq	%rbp	#
	.cfi_def_cfa_offset 16
	.cfi_offset 6, -16
	movq	%rsp, %rbp	#,
	.cfi_def_cfa_register 6
	movl	%edi, %eax	# c, tmp84
	movb	%al, -20(%rbp)	# tmp85, c
# src/main.cc:37:     const uint8_t ASCII_NUMBER_0 = 48;
	movb	$48, -2(%rbp)	#, ASCII_NUMBER_0
# src/main.cc:38:     const uint8_t ASCII_NUMBER_9 = 57;
	movb	$57, -1(%rbp)	#, ASCII_NUMBER_9
# src/main.cc:39:     return (c >= ASCII_NUMBER_0 && c <= ASCII_NUMBER_9);
	cmpb	$47, -20(%rbp)	#, c
	jbe	.L49	#,
# src/main.cc:39:     return (c >= ASCII_NUMBER_0 && c <= ASCII_NUMBER_9);
	cmpb	$57, -20(%rbp)	#, c
	ja	.L49	#,
# src/main.cc:39:     return (c >= ASCII_NUMBER_0 && c <= ASCII_NUMBER_9);
	movl	$1, %eax	#, iftmp.14_1
	jmp	.L50	#
.L49:
# src/main.cc:39:     return (c >= ASCII_NUMBER_0 && c <= ASCII_NUMBER_9);
	movl	$0, %eax	#, iftmp.14_1
.L50:
# src/main.cc:40: }
	popq	%rbp	#
	.cfi_def_cfa 7, 8
	ret	
	.cfi_endproc
.LFE2834:
	.size	_Z12ascii_is_inth, .-_Z12ascii_is_inth
	.section	.text._Z15ascii_is_symbolh,"axG",@progbits,_Z15ascii_is_symbolh,comdat
	.weak	_Z15ascii_is_symbolh
	.type	_Z15ascii_is_symbolh, @function
_Z15ascii_is_symbolh:
.LFB2836:
	.cfi_startproc
	endbr64	
	pushq	%rbp	#
	.cfi_def_cfa_offset 16
	.cfi_offset 6, -16
	movq	%rsp, %rbp	#,
	.cfi_def_cfa_register 6
	movl	%edi, %eax	# c, tmp84
	movb	%al, -20(%rbp)	# tmp85, c
# src/main.cc:58:     const uint8_t ASCII_SYMBOL_START = 33;
	movb	$33, -2(%rbp)	#, ASCII_SYMBOL_START
# src/main.cc:59:     const uint8_t ASCII_SYMBOL_END = 126;
	movb	$126, -1(%rbp)	#, ASCII_SYMBOL_END
# src/main.cc:60:     return (c >= ASCII_SYMBOL_START && c <= ASCII_SYMBOL_END);
	cmpb	$32, -20(%rbp)	#, c
	jbe	.L53	#,
# src/main.cc:60:     return (c >= ASCII_SYMBOL_START && c <= ASCII_SYMBOL_END);
	cmpb	$126, -20(%rbp)	#, c
	ja	.L53	#,
# src/main.cc:60:     return (c >= ASCII_SYMBOL_START && c <= ASCII_SYMBOL_END);
	movl	$1, %eax	#, iftmp.74_1
	jmp	.L54	#
.L53:
# src/main.cc:60:     return (c >= ASCII_SYMBOL_START && c <= ASCII_SYMBOL_END);
	movl	$0, %eax	#, iftmp.74_1
.L54:
# src/main.cc:61: }
	popq	%rbp	#
	.cfi_def_cfa 7, 8
	ret	
	.cfi_endproc
.LFE2836:
	.size	_Z15ascii_is_symbolh, .-_Z15ascii_is_symbolh
	.local	_ZZ10random_genvE3num
	.comm	_ZZ10random_genvE3num,4,4
	.local	_ZGVZ10random_genvE3num
	.comm	_ZGVZ10random_genvE3num,8,8
	.text
	.globl	_Z10random_genv
	.type	_Z10random_genv, @function
_Z10random_genv:
.LFB2837:
	.cfi_startproc
	endbr64	
	pushq	%rbp	#
	.cfi_def_cfa_offset 16
	.cfi_offset 6, -16
	movq	%rsp, %rbp	#,
	.cfi_def_cfa_register 6
# src/main.cc:70:     static uint32_t num = std::time(NULL);
	movzbl	_ZGVZ10random_genvE3num(%rip), %eax	#, _1
	testb	%al, %al	# _1
	sete	%al	#, retval.0_15
	testb	%al, %al	# retval.0_15
	je	.L57	#,
# src/main.cc:70:     static uint32_t num = std::time(NULL);
	leaq	_ZGVZ10random_genvE3num(%rip), %rax	#, tmp99
	movq	%rax, %rdi	# tmp99,
	call	__cxa_guard_acquire@PLT	#
	testl	%eax, %eax	# _2
	setne	%al	#, retval.1_17
	testb	%al, %al	# retval.1_17
	je	.L57	#,
# src/main.cc:70:     static uint32_t num = std::time(NULL);
	movl	$0, %edi	#,
	call	time@PLT	#
# src/main.cc:70:     static uint32_t num = std::time(NULL);
	movl	%eax, _ZZ10random_genvE3num(%rip)	# _4, num
	leaq	_ZGVZ10random_genvE3num(%rip), %rax	#, tmp100
	movq	%rax, %rdi	# tmp100,
	call	__cxa_guard_release@PLT	#
.L57:
# src/main.cc:71:     num = (22695477 * num + 1) % 2147483648;
	movl	_ZZ10random_genvE3num(%rip), %eax	# num, num.2_5
	imull	$22695477, %eax, %eax	#, num.2_5, _6
# src/main.cc:71:     num = (22695477 * num + 1) % 2147483648;
	addl	$1, %eax	#, _7
# src/main.cc:71:     num = (22695477 * num + 1) % 2147483648;
	andl	$2147483647, %eax	#, _8
# src/main.cc:71:     num = (22695477 * num + 1) % 2147483648;
	movl	%eax, _ZZ10random_genvE3num(%rip)	# _8, num
# src/main.cc:72:     return static_cast<int16_t>(num >> 16 & 0x7FFF);
	movl	_ZZ10random_genvE3num(%rip), %eax	# num, num.3_9
	shrl	$16, %eax	#, _10
# src/main.cc:72:     return static_cast<int16_t>(num >> 16 & 0x7FFF);
	andw	$32767, %ax	#, _24
# src/main.cc:73: }
	popq	%rbp	#
	.cfi_def_cfa 7, 8
	ret	
	.cfi_endproc
.LFE2837:
	.size	_Z10random_genv, .-_Z10random_genv
	.globl	_Z3minss
	.type	_Z3minss, @function
_Z3minss:
.LFB2838:
	.cfi_startproc
	endbr64	
	pushq	%rbp	#
	.cfi_def_cfa_offset 16
	.cfi_offset 6, -16
	movq	%rsp, %rbp	#,
	.cfi_def_cfa_register 6
	movl	%edi, %edx	# n1, tmp84
	movl	%esi, %eax	# n2, tmp86
	movw	%dx, -4(%rbp)	# tmp85, n1
	movw	%ax, -8(%rbp)	# tmp87, n2
# src/main.cc:81: int16_t min(int16_t n1, int16_t n2) { return (n1 < n2) ? n1 : n2; }
	movzwl	-4(%rbp), %eax	# n1, tmp88
	cmpw	-8(%rbp), %ax	# n2, tmp88
	jge	.L60	#,
# src/main.cc:81: int16_t min(int16_t n1, int16_t n2) { return (n1 < n2) ? n1 : n2; }
	movzwl	-4(%rbp), %eax	# n1, iftmp.4_1
# src/main.cc:81: int16_t min(int16_t n1, int16_t n2) { return (n1 < n2) ? n1 : n2; }
	jmp	.L62	#
.L60:
# src/main.cc:81: int16_t min(int16_t n1, int16_t n2) { return (n1 < n2) ? n1 : n2; }
	movzwl	-8(%rbp), %eax	# n2, iftmp.4_1
.L62:
# src/main.cc:81: int16_t min(int16_t n1, int16_t n2) { return (n1 < n2) ? n1 : n2; }
	popq	%rbp	#
	.cfi_def_cfa 7, 8
	ret	
	.cfi_endproc
.LFE2838:
	.size	_Z3minss, .-_Z3minss
	.globl	_Z3maxss
	.type	_Z3maxss, @function
_Z3maxss:
.LFB2839:
	.cfi_startproc
	endbr64	
	pushq	%rbp	#
	.cfi_def_cfa_offset 16
	.cfi_offset 6, -16
	movq	%rsp, %rbp	#,
	.cfi_def_cfa_register 6
	movl	%edi, %edx	# n1, tmp84
	movl	%esi, %eax	# n2, tmp86
	movw	%dx, -4(%rbp)	# tmp85, n1
	movw	%ax, -8(%rbp)	# tmp87, n2
# src/main.cc:89: int16_t max(int16_t n1, int16_t n2) { return (n1 > n2) ? n1 : n2; }
	movzwl	-4(%rbp), %eax	# n1, tmp88
	cmpw	-8(%rbp), %ax	# n2, tmp88
	jle	.L64	#,
# src/main.cc:89: int16_t max(int16_t n1, int16_t n2) { return (n1 > n2) ? n1 : n2; }
	movzwl	-4(%rbp), %eax	# n1, iftmp.5_1
# src/main.cc:89: int16_t max(int16_t n1, int16_t n2) { return (n1 > n2) ? n1 : n2; }
	jmp	.L66	#
.L64:
# src/main.cc:89: int16_t max(int16_t n1, int16_t n2) { return (n1 > n2) ? n1 : n2; }
	movzwl	-8(%rbp), %eax	# n2, iftmp.5_1
.L66:
# src/main.cc:89: int16_t max(int16_t n1, int16_t n2) { return (n1 > n2) ? n1 : n2; }
	popq	%rbp	#
	.cfi_def_cfa 7, 8
	ret	
	.cfi_endproc
.LFE2839:
	.size	_Z3maxss, .-_Z3maxss
	.globl	_Z5limitsss
	.type	_Z5limitsss, @function
_Z5limitsss:
.LFB2840:
	.cfi_startproc
	endbr64	
	pushq	%rbp	#
	.cfi_def_cfa_offset 16
	.cfi_offset 6, -16
	movq	%rsp, %rbp	#,
	.cfi_def_cfa_register 6
	pushq	%rbx	#
	subq	$16, %rsp	#,
	.cfi_offset 3, -24
	movl	%esi, %ecx	# upper, tmp91
	movl	%edx, %eax	# lower, tmp93
	movl	%edi, %edx	# tmp89, tmp90
	movw	%dx, -12(%rbp)	# tmp90, n
	movl	%ecx, %edx	# tmp91, tmp92
	movw	%dx, -16(%rbp)	# tmp92, upper
	movw	%ax, -20(%rbp)	# tmp94, lower
# src/main.cc:99:     return max(min(n, upper), lower);
	movswl	-20(%rbp), %ebx	# lower, _1
# src/main.cc:99:     return max(min(n, upper), lower);
	movswl	-16(%rbp), %edx	# upper, _2
	movswl	-12(%rbp), %eax	# n, _3
	movl	%edx, %esi	# _2,
	movl	%eax, %edi	# _3,
	call	_Z3minss	#
# src/main.cc:99:     return max(min(n, upper), lower);
	cwtl
	movl	%ebx, %esi	# _1,
	movl	%eax, %edi	# _5,
	call	_Z3maxss	#
# src/main.cc:100: }
	movq	-8(%rbp), %rbx	#,
	leave	
	.cfi_def_cfa 7, 8
	ret	
	.cfi_endproc
.LFE2840:
	.size	_Z5limitsss, .-_Z5limitsss
	.section	.rodata
.LC0:
	.string	"\033["
.LC1:
	.string	";"
.LC2:
	.string	"H"
	.section	.text._ZN4View11cursor_moveE7POINT_T,"axG",@progbits,_ZN4View11cursor_moveE7POINT_T,comdat
	.align 2
	.weak	_ZN4View11cursor_moveE7POINT_T
	.type	_ZN4View11cursor_moveE7POINT_T, @function
_ZN4View11cursor_moveE7POINT_T:
.LFB2841:
	.cfi_startproc
	endbr64	
	pushq	%rbp	#
	.cfi_def_cfa_offset 16
	.cfi_offset 6, -16
	movq	%rsp, %rbp	#,
	.cfi_def_cfa_register 6
	subq	$16, %rsp	#,
	movq	%rdi, -8(%rbp)	# this, this
	movl	%esi, -12(%rbp)	# point, point
# src/main.cc:125:         std::cout << "\033[" << +point.y << ";" << +point.x << "H"
	leaq	.LC0(%rip), %rax	#, tmp91
	movq	%rax, %rsi	# tmp91,
	leaq	_ZSt4cout(%rip), %rax	#, tmp92
	movq	%rax, %rdi	# tmp92,
	call	_ZStlsISt11char_traitsIcEERSt13basic_ostreamIcT_ES5_PKc@PLT	#
	movq	%rax, %rdx	#, _1
# src/main.cc:125:         std::cout << "\033[" << +point.y << ";" << +point.x << "H"
	movzwl	-12(%rbp), %eax	# point.y, _2
# src/main.cc:125:         std::cout << "\033[" << +point.y << ";" << +point.x << "H"
	cwtl
	movl	%eax, %esi	# _3,
	movq	%rdx, %rdi	# _1,
	call	_ZNSolsEi@PLT	#
	movq	%rax, %rdx	#, _4
	leaq	.LC1(%rip), %rax	#, tmp93
	movq	%rax, %rsi	# tmp93,
	movq	%rdx, %rdi	# _4,
	call	_ZStlsISt11char_traitsIcEERSt13basic_ostreamIcT_ES5_PKc@PLT	#
	movq	%rax, %rdx	#, _5
# src/main.cc:125:         std::cout << "\033[" << +point.y << ";" << +point.x << "H"
	movzwl	-10(%rbp), %eax	# point.x, _6
# src/main.cc:125:         std::cout << "\033[" << +point.y << ";" << +point.x << "H"
	cwtl
	movl	%eax, %esi	# _7,
	movq	%rdx, %rdi	# _5,
	call	_ZNSolsEi@PLT	#
	movq	%rax, %rdx	#, _8
	leaq	.LC2(%rip), %rax	#, tmp94
	movq	%rax, %rsi	# tmp94,
	movq	%rdx, %rdi	# _8,
	call	_ZStlsISt11char_traitsIcEERSt13basic_ostreamIcT_ES5_PKc@PLT	#
# src/main.cc:126:                   << std::flush;
	movq	_ZSt5flushIcSt11char_traitsIcEERSt13basic_ostreamIT_T0_ES6_@GOTPCREL(%rip), %rdx	#, tmp96
	movq	%rdx, %rsi	# tmp95,
	movq	%rax, %rdi	# _9,
	call	_ZNSolsEPFRSoS_E@PLT	#
# src/main.cc:127:     }
	nop	
	leave	
	.cfi_def_cfa 7, 8
	ret	
	.cfi_endproc
.LFE2841:
	.size	_ZN4View11cursor_moveE7POINT_T, .-_ZN4View11cursor_moveE7POINT_T
	.section	.rodata
.LC3:
	.string	"\033[?25l"
	.section	.text._ZN4View11cursor_hideEv,"axG",@progbits,_ZN4View11cursor_hideEv,comdat
	.align 2
	.weak	_ZN4View11cursor_hideEv
	.type	_ZN4View11cursor_hideEv, @function
_ZN4View11cursor_hideEv:
.LFB2842:
	.cfi_startproc
	endbr64	
	pushq	%rbp	#
	.cfi_def_cfa_offset 16
	.cfi_offset 6, -16
	movq	%rsp, %rbp	#,
	.cfi_def_cfa_register 6
	subq	$16, %rsp	#,
	movq	%rdi, -8(%rbp)	# this, this
# src/main.cc:132:     void cursor_hide(void) { std::cout << "\033[?25l" << std::flush; }
	leaq	.LC3(%rip), %rax	#, tmp83
	movq	%rax, %rsi	# tmp83,
	leaq	_ZSt4cout(%rip), %rax	#, tmp84
	movq	%rax, %rdi	# tmp84,
	call	_ZStlsISt11char_traitsIcEERSt13basic_ostreamIcT_ES5_PKc@PLT	#
# src/main.cc:132:     void cursor_hide(void) { std::cout << "\033[?25l" << std::flush; }
	movq	_ZSt5flushIcSt11char_traitsIcEERSt13basic_ostreamIT_T0_ES6_@GOTPCREL(%rip), %rdx	#, tmp86
	movq	%rdx, %rsi	# tmp85,
	movq	%rax, %rdi	# _1,
	call	_ZNSolsEPFRSoS_E@PLT	#
# src/main.cc:132:     void cursor_hide(void) { std::cout << "\033[?25l" << std::flush; }
	nop	
	leave	
	.cfi_def_cfa 7, 8
	ret	
	.cfi_endproc
.LFE2842:
	.size	_ZN4View11cursor_hideEv, .-_ZN4View11cursor_hideEv
	.section	.rodata
.LC4:
	.string	"\033[?25h"
	.section	.text._ZN4View11cursor_showEv,"axG",@progbits,_ZN4View11cursor_showEv,comdat
	.align 2
	.weak	_ZN4View11cursor_showEv
	.type	_ZN4View11cursor_showEv, @function
_ZN4View11cursor_showEv:
.LFB2843:
	.cfi_startproc
	endbr64	
	pushq	%rbp	#
	.cfi_def_cfa_offset 16
	.cfi_offset 6, -16
	movq	%rsp, %rbp	#,
	.cfi_def_cfa_register 6
	subq	$16, %rsp	#,
	movq	%rdi, -8(%rbp)	# this, this
# src/main.cc:137:     void cursor_show(void) { std::cout << "\033[?25h" << std::flush; }
	leaq	.LC4(%rip), %rax	#, tmp83
	movq	%rax, %rsi	# tmp83,
	leaq	_ZSt4cout(%rip), %rax	#, tmp84
	movq	%rax, %rdi	# tmp84,
	call	_ZStlsISt11char_traitsIcEERSt13basic_ostreamIcT_ES5_PKc@PLT	#
# src/main.cc:137:     void cursor_show(void) { std::cout << "\033[?25h" << std::flush; }
	movq	_ZSt5flushIcSt11char_traitsIcEERSt13basic_ostreamIT_T0_ES6_@GOTPCREL(%rip), %rdx	#, tmp86
	movq	%rdx, %rsi	# tmp85,
	movq	%rax, %rdi	# _1,
	call	_ZNSolsEPFRSoS_E@PLT	#
# src/main.cc:137:     void cursor_show(void) { std::cout << "\033[?25h" << std::flush; }
	nop	
	leave	
	.cfi_def_cfa 7, 8
	ret	
	.cfi_endproc
.LFE2843:
	.size	_ZN4View11cursor_showEv, .-_ZN4View11cursor_showEv
	.section	.text._ZN4View17cursor_move_startEv,"axG",@progbits,_ZN4View17cursor_move_startEv,comdat
	.align 2
	.weak	_ZN4View17cursor_move_startEv
	.type	_ZN4View17cursor_move_startEv, @function
_ZN4View17cursor_move_startEv:
.LFB2844:
	.cfi_startproc
	endbr64	
	pushq	%rbp	#
	.cfi_def_cfa_offset 16
	.cfi_offset 6, -16
	movq	%rsp, %rbp	#,
	.cfi_def_cfa_register 6
	subq	$16, %rsp	#,
	movq	%rdi, -8(%rbp)	# this, this
# src/main.cc:142:     void cursor_move_start(void) { cursor_move(point_t{0, 0}); }
	movw	$0, %ax	#, D.103328
	movzwl	%ax, %eax	# D.103328, tmp84
	movq	-8(%rbp), %rdx	# this, tmp85
	movl	%eax, %esi	# D.103328,
	movq	%rdx, %rdi	# tmp85,
	call	_ZN4View11cursor_moveE7POINT_T	#
# src/main.cc:142:     void cursor_move_start(void) { cursor_move(point_t{0, 0}); }
	nop	
	leave	
	.cfi_def_cfa 7, 8
	ret	
	.cfi_endproc
.LFE2844:
	.size	_ZN4View17cursor_move_startEv, .-_ZN4View17cursor_move_startEv
	.section	.text._ZN4View15cursor_move_endEv,"axG",@progbits,_ZN4View15cursor_move_endEv,comdat
	.align 2
	.weak	_ZN4View15cursor_move_endEv
	.type	_ZN4View15cursor_move_endEv, @function
_ZN4View15cursor_move_endEv:
.LFB2845:
	.cfi_startproc
	endbr64	
	pushq	%rbp	#
	.cfi_def_cfa_offset 16
	.cfi_offset 6, -16
	movq	%rsp, %rbp	#,
	.cfi_def_cfa_register 6
	subq	$16, %rsp	#,
	movq	%rdi, -8(%rbp)	# this, this
# src/main.cc:147:     void cursor_move_end(void) { cursor_move(view_size); }
	movq	-8(%rbp), %rax	# this, tmp82
	movl	32(%rax), %edx	# this_2(D)->view_size, tmp83
	movq	-8(%rbp), %rax	# this, tmp84
	movl	%edx, %esi	# tmp83,
	movq	%rax, %rdi	# tmp84,
	call	_ZN4View11cursor_moveE7POINT_T	#
# src/main.cc:147:     void cursor_move_end(void) { cursor_move(view_size); }
	nop	
	leave	
	.cfi_def_cfa 7, 8
	ret	
	.cfi_endproc
.LFE2845:
	.size	_ZN4View15cursor_move_endEv, .-_ZN4View15cursor_move_endEv
	.section	.text._ZN4View17cursor_move_inputEv,"axG",@progbits,_ZN4View17cursor_move_inputEv,comdat
	.align 2
	.weak	_ZN4View17cursor_move_inputEv
	.type	_ZN4View17cursor_move_inputEv, @function
_ZN4View17cursor_move_inputEv:
.LFB2846:
	.cfi_startproc
	endbr64	
	pushq	%rbp	#
	.cfi_def_cfa_offset 16
	.cfi_offset 6, -16
	movq	%rsp, %rbp	#,
	.cfi_def_cfa_register 6
	subq	$32, %rsp	#,
	movq	%rdi, -24(%rbp)	# this, this
# src/main.cc:152:     void cursor_move_input(void) {
	movq	%fs:40, %rax	# MEM[(<address-space-1> long unsigned int *)40B], tmp86
	movq	%rax, -8(%rbp)	# tmp86, D.105982
	xorl	%eax, %eax	# tmp86
# src/main.cc:153:         point_t p = {line_input, 1};
	movl	$0, -12(%rbp)	#, p
	movw	$1, -10(%rbp)	#, p.x
# src/main.cc:153:         point_t p = {line_input, 1};
	movq	-24(%rbp), %rax	# this, tmp83
	movzwl	138(%rax), %eax	# this_5(D)->line_input, _1
# src/main.cc:153:         point_t p = {line_input, 1};
	movw	%ax, -12(%rbp)	# _1, p.y
# src/main.cc:154:         cursor_move(p);
	movl	-12(%rbp), %edx	# p, tmp84
	movq	-24(%rbp), %rax	# this, tmp85
	movl	%edx, %esi	# tmp84,
	movq	%rax, %rdi	# tmp85,
	call	_ZN4View11cursor_moveE7POINT_T	#
# src/main.cc:155:     }
	nop	
	movq	-8(%rbp), %rax	# D.105982, tmp87
	subq	%fs:40, %rax	# MEM[(<address-space-1> long unsigned int *)40B], tmp87
	je	.L75	#,
	call	__stack_chk_fail@PLT	#
.L75:
	leave	
	.cfi_def_cfa 7, 8
	ret	
	.cfi_endproc
.LFE2846:
	.size	_ZN4View17cursor_move_inputEv, .-_ZN4View17cursor_move_inputEv
	.section	.text._ZN4View16cursor_move_infoEv,"axG",@progbits,_ZN4View16cursor_move_infoEv,comdat
	.align 2
	.weak	_ZN4View16cursor_move_infoEv
	.type	_ZN4View16cursor_move_infoEv, @function
_ZN4View16cursor_move_infoEv:
.LFB2847:
	.cfi_startproc
	endbr64	
	pushq	%rbp	#
	.cfi_def_cfa_offset 16
	.cfi_offset 6, -16
	movq	%rsp, %rbp	#,
	.cfi_def_cfa_register 6
	subq	$32, %rsp	#,
	movq	%rdi, -24(%rbp)	# this, this
# src/main.cc:160:     void cursor_move_info(void) {
	movq	%fs:40, %rax	# MEM[(<address-space-1> long unsigned int *)40B], tmp86
	movq	%rax, -8(%rbp)	# tmp86, D.105983
	xorl	%eax, %eax	# tmp86
# src/main.cc:161:         point_t p = {line_info, 1};
	movl	$0, -12(%rbp)	#, p
	movw	$1, -10(%rbp)	#, p.x
# src/main.cc:161:         point_t p = {line_info, 1};
	movq	-24(%rbp), %rax	# this, tmp83
	movzwl	140(%rax), %eax	# this_5(D)->line_info, _1
# src/main.cc:161:         point_t p = {line_info, 1};
	movw	%ax, -12(%rbp)	# _1, p.y
# src/main.cc:162:         cursor_move(p);
	movl	-12(%rbp), %edx	# p, tmp84
	movq	-24(%rbp), %rax	# this, tmp85
	movl	%edx, %esi	# tmp84,
	movq	%rax, %rdi	# tmp85,
	call	_ZN4View11cursor_moveE7POINT_T	#
# src/main.cc:163:     }
	nop	
	movq	-8(%rbp), %rax	# D.105983, tmp87
	subq	%fs:40, %rax	# MEM[(<address-space-1> long unsigned int *)40B], tmp87
	je	.L77	#,
	call	__stack_chk_fail@PLT	#
.L77:
	leave	
	.cfi_def_cfa 7, 8
	ret	
	.cfi_endproc
.LFE2847:
	.size	_ZN4View16cursor_move_infoEv, .-_ZN4View16cursor_move_infoEv
	.section	.rodata
.LC5:
	.string	"J"
	.section	.text._ZN4View20cursor_erase_displayEh,"axG",@progbits,_ZN4View20cursor_erase_displayEh,comdat
	.align 2
	.weak	_ZN4View20cursor_erase_displayEh
	.type	_ZN4View20cursor_erase_displayEh, @function
_ZN4View20cursor_erase_displayEh:
.LFB2848:
	.cfi_startproc
	endbr64	
	pushq	%rbp	#
	.cfi_def_cfa_offset 16
	.cfi_offset 6, -16
	movq	%rsp, %rbp	#,
	.cfi_def_cfa_register 6
	subq	$16, %rsp	#,
	movq	%rdi, -8(%rbp)	# this, this
	movl	%esi, %eax	# n, tmp86
	movb	%al, -12(%rbp)	# tmp87, n
# src/main.cc:172:         std::cout << "\033[" << +n << "J" << std::flush;
	leaq	.LC0(%rip), %rax	#, tmp88
	movq	%rax, %rsi	# tmp88,
	leaq	_ZSt4cout(%rip), %rax	#, tmp89
	movq	%rax, %rdi	# tmp89,
	call	_ZStlsISt11char_traitsIcEERSt13basic_ostreamIcT_ES5_PKc@PLT	#
	movq	%rax, %rdx	#, _1
# src/main.cc:172:         std::cout << "\033[" << +n << "J" << std::flush;
	movzbl	-12(%rbp), %eax	# n, _2
	movl	%eax, %esi	# _2,
	movq	%rdx, %rdi	# _1,
	call	_ZNSolsEi@PLT	#
	movq	%rax, %rdx	#, _3
	leaq	.LC5(%rip), %rax	#, tmp90
	movq	%rax, %rsi	# tmp90,
	movq	%rdx, %rdi	# _3,
	call	_ZStlsISt11char_traitsIcEERSt13basic_ostreamIcT_ES5_PKc@PLT	#
# src/main.cc:172:         std::cout << "\033[" << +n << "J" << std::flush;
	movq	_ZSt5flushIcSt11char_traitsIcEERSt13basic_ostreamIT_T0_ES6_@GOTPCREL(%rip), %rdx	#, tmp92
	movq	%rdx, %rsi	# tmp91,
	movq	%rax, %rdi	# _4,
	call	_ZNSolsEPFRSoS_E@PLT	#
# src/main.cc:173:     }
	nop	
	leave	
	.cfi_def_cfa 7, 8
	ret	
	.cfi_endproc
.LFE2848:
	.size	_ZN4View20cursor_erase_displayEh, .-_ZN4View20cursor_erase_displayEh
	.section	.rodata
.LC6:
	.string	"K"
	.section	.text._ZN4View17cursor_erase_lineEh,"axG",@progbits,_ZN4View17cursor_erase_lineEh,comdat
	.align 2
	.weak	_ZN4View17cursor_erase_lineEh
	.type	_ZN4View17cursor_erase_lineEh, @function
_ZN4View17cursor_erase_lineEh:
.LFB2849:
	.cfi_startproc
	endbr64	
	pushq	%rbp	#
	.cfi_def_cfa_offset 16
	.cfi_offset 6, -16
	movq	%rsp, %rbp	#,
	.cfi_def_cfa_register 6
	subq	$16, %rsp	#,
	movq	%rdi, -8(%rbp)	# this, this
	movl	%esi, %eax	# n, tmp86
	movb	%al, -12(%rbp)	# tmp87, n
# src/main.cc:181:         std::cout << "\033[" << +n << "K" << std::flush;
	leaq	.LC0(%rip), %rax	#, tmp88
	movq	%rax, %rsi	# tmp88,
	leaq	_ZSt4cout(%rip), %rax	#, tmp89
	movq	%rax, %rdi	# tmp89,
	call	_ZStlsISt11char_traitsIcEERSt13basic_ostreamIcT_ES5_PKc@PLT	#
	movq	%rax, %rdx	#, _1
# src/main.cc:181:         std::cout << "\033[" << +n << "K" << std::flush;
	movzbl	-12(%rbp), %eax	# n, _2
	movl	%eax, %esi	# _2,
	movq	%rdx, %rdi	# _1,
	call	_ZNSolsEi@PLT	#
	movq	%rax, %rdx	#, _3
	leaq	.LC6(%rip), %rax	#, tmp90
	movq	%rax, %rsi	# tmp90,
	movq	%rdx, %rdi	# _3,
	call	_ZStlsISt11char_traitsIcEERSt13basic_ostreamIcT_ES5_PKc@PLT	#
# src/main.cc:181:         std::cout << "\033[" << +n << "K" << std::flush;
	movq	_ZSt5flushIcSt11char_traitsIcEERSt13basic_ostreamIT_T0_ES6_@GOTPCREL(%rip), %rdx	#, tmp92
	movq	%rdx, %rsi	# tmp91,
	movq	%rax, %rdi	# _4,
	call	_ZNSolsEPFRSoS_E@PLT	#
# src/main.cc:182:     }
	nop	
	leave	
	.cfi_def_cfa 7, 8
	ret	
	.cfi_endproc
.LFE2849:
	.size	_ZN4View17cursor_erase_lineEh, .-_ZN4View17cursor_erase_lineEh
	.section	.rodata
.LC7:
	.string	"\033[s"
	.section	.text._ZN4View11cursor_saveEv,"axG",@progbits,_ZN4View11cursor_saveEv,comdat
	.align 2
	.weak	_ZN4View11cursor_saveEv
	.type	_ZN4View11cursor_saveEv, @function
_ZN4View11cursor_saveEv:
.LFB2850:
	.cfi_startproc
	endbr64	
	pushq	%rbp	#
	.cfi_def_cfa_offset 16
	.cfi_offset 6, -16
	movq	%rsp, %rbp	#,
	.cfi_def_cfa_register 6
	subq	$16, %rsp	#,
	movq	%rdi, -8(%rbp)	# this, this
# src/main.cc:187:     void cursor_save(void) { std::cout << "\033[s" << std::flush; }
	leaq	.LC7(%rip), %rax	#, tmp83
	movq	%rax, %rsi	# tmp83,
	leaq	_ZSt4cout(%rip), %rax	#, tmp84
	movq	%rax, %rdi	# tmp84,
	call	_ZStlsISt11char_traitsIcEERSt13basic_ostreamIcT_ES5_PKc@PLT	#
# src/main.cc:187:     void cursor_save(void) { std::cout << "\033[s" << std::flush; }
	movq	_ZSt5flushIcSt11char_traitsIcEERSt13basic_ostreamIT_T0_ES6_@GOTPCREL(%rip), %rdx	#, tmp86
	movq	%rdx, %rsi	# tmp85,
	movq	%rax, %rdi	# _1,
	call	_ZNSolsEPFRSoS_E@PLT	#
# src/main.cc:187:     void cursor_save(void) { std::cout << "\033[s" << std::flush; }
	nop	
	leave	
	.cfi_def_cfa 7, 8
	ret	
	.cfi_endproc
.LFE2850:
	.size	_ZN4View11cursor_saveEv, .-_ZN4View11cursor_saveEv
	.section	.rodata
.LC8:
	.string	"\033[u"
	.section	.text._ZN4View14cursor_restoreEv,"axG",@progbits,_ZN4View14cursor_restoreEv,comdat
	.align 2
	.weak	_ZN4View14cursor_restoreEv
	.type	_ZN4View14cursor_restoreEv, @function
_ZN4View14cursor_restoreEv:
.LFB2851:
	.cfi_startproc
	endbr64	
	pushq	%rbp	#
	.cfi_def_cfa_offset 16
	.cfi_offset 6, -16
	movq	%rsp, %rbp	#,
	.cfi_def_cfa_register 6
	subq	$16, %rsp	#,
	movq	%rdi, -8(%rbp)	# this, this
# src/main.cc:192:     void cursor_restore(void) { std::cout << "\033[u" << std::flush; }
	leaq	.LC8(%rip), %rax	#, tmp83
	movq	%rax, %rsi	# tmp83,
	leaq	_ZSt4cout(%rip), %rax	#, tmp84
	movq	%rax, %rdi	# tmp84,
	call	_ZStlsISt11char_traitsIcEERSt13basic_ostreamIcT_ES5_PKc@PLT	#
# src/main.cc:192:     void cursor_restore(void) { std::cout << "\033[u" << std::flush; }
	movq	_ZSt5flushIcSt11char_traitsIcEERSt13basic_ostreamIT_T0_ES6_@GOTPCREL(%rip), %rdx	#, tmp86
	movq	%rdx, %rsi	# tmp85,
	movq	%rax, %rdi	# _1,
	call	_ZNSolsEPFRSoS_E@PLT	#
# src/main.cc:192:     void cursor_restore(void) { std::cout << "\033[u" << std::flush; }
	nop	
	leave	
	.cfi_def_cfa 7, 8
	ret	
	.cfi_endproc
.LFE2851:
	.size	_ZN4View14cursor_restoreEv, .-_ZN4View14cursor_restoreEv
	.section	.text._ZNSt12__mutex_baseC2Ev,"axG",@progbits,_ZNSt12__mutex_baseC5Ev,comdat
	.align 2
	.weak	_ZNSt12__mutex_baseC2Ev
	.type	_ZNSt12__mutex_baseC2Ev, @function
_ZNSt12__mutex_baseC2Ev:
.LFB2855:
	.cfi_startproc
	endbr64	
	pushq	%rbp	#
	.cfi_def_cfa_offset 16
	.cfi_offset 6, -16
	movq	%rsp, %rbp	#,
	.cfi_def_cfa_register 6
	movq	%rdi, -8(%rbp)	# this, this
# /usr/include/c++/11/bits/std_mutex.h:65:     constexpr __mutex_base() noexcept = default;
	movq	-8(%rbp), %rax	# this, tmp82
	movq	$0, (%rax)	#, this_2(D)->_M_mutex
	movq	$0, 8(%rax)	#, this_2(D)->_M_mutex
	movq	$0, 16(%rax)	#, this_2(D)->_M_mutex
	movq	$0, 24(%rax)	#, this_2(D)->_M_mutex
	movq	$0, 32(%rax)	#, this_2(D)->_M_mutex
	nop	
	popq	%rbp	#
	.cfi_def_cfa 7, 8
	ret	
	.cfi_endproc
.LFE2855:
	.size	_ZNSt12__mutex_baseC2Ev, .-_ZNSt12__mutex_baseC2Ev
	.weak	_ZNSt12__mutex_baseC1Ev
	.set	_ZNSt12__mutex_baseC1Ev,_ZNSt12__mutex_baseC2Ev
	.section	.text._ZNSt5mutexC2Ev,"axG",@progbits,_ZNSt5mutexC5Ev,comdat
	.align 2
	.weak	_ZNSt5mutexC2Ev
	.type	_ZNSt5mutexC2Ev, @function
_ZNSt5mutexC2Ev:
.LFB2857:
	.cfi_startproc
	endbr64	
	pushq	%rbp	#
	.cfi_def_cfa_offset 16
	.cfi_offset 6, -16
	movq	%rsp, %rbp	#,
	.cfi_def_cfa_register 6
	subq	$16, %rsp	#,
	movq	%rdi, -8(%rbp)	# this, this
# /usr/include/c++/11/bits/std_mutex.h:91:     mutex() noexcept = default;
	movq	-8(%rbp), %rax	# this, _1
	movq	%rax, %rdi	# _1,
	call	_ZNSt12__mutex_baseC2Ev	#
	nop	
	leave	
	.cfi_def_cfa 7, 8
	ret	
	.cfi_endproc
.LFE2857:
	.size	_ZNSt5mutexC2Ev, .-_ZNSt5mutexC2Ev
	.weak	_ZNSt5mutexC1Ev
	.set	_ZNSt5mutexC1Ev,_ZNSt5mutexC2Ev
	.section	.text._ZNSt8functionIFvvEED2Ev,"axG",@progbits,_ZNSt8functionIFvvEED5Ev,comdat
	.align 2
	.weak	_ZNSt8functionIFvvEED2Ev
	.type	_ZNSt8functionIFvvEED2Ev, @function
_ZNSt8functionIFvvEED2Ev:
.LFB2860:
	.cfi_startproc
	endbr64	
	pushq	%rbp	#
	.cfi_def_cfa_offset 16
	.cfi_offset 6, -16
	movq	%rsp, %rbp	#,
	.cfi_def_cfa_register 6
	subq	$16, %rsp	#,
	movq	%rdi, -8(%rbp)	# this, this
# /usr/include/c++/11/bits/std_function.h:334:     class function<_Res(_ArgTypes...)>
	movq	-8(%rbp), %rax	# this, _1
	movq	%rax, %rdi	# _1,
	call	_ZNSt14_Function_baseD2Ev	#
	nop	
	leave	
	.cfi_def_cfa 7, 8
	ret	
	.cfi_endproc
.LFE2860:
	.size	_ZNSt8functionIFvvEED2Ev, .-_ZNSt8functionIFvvEED2Ev
	.weak	_ZNSt8functionIFvvEED1Ev
	.set	_ZNSt8functionIFvvEED1Ev,_ZNSt8functionIFvvEED2Ev
	.section	.rodata
.LC9:
	.string	">> "
	.section	.text._ZN4ViewC2EPh7POINT_Tj,"axG",@progbits,_ZN4ViewC5EPh7POINT_Tj,comdat
	.align 2
	.weak	_ZN4ViewC2EPh7POINT_Tj
	.type	_ZN4ViewC2EPh7POINT_Tj, @function
_ZN4ViewC2EPh7POINT_Tj:
.LFB2862:
	.cfi_startproc
	.cfi_personality 0x9b,DW.ref.__gxx_personality_v0
	.cfi_lsda 0x1b,.LLSDA2862
	endbr64	
	pushq	%rbp	#
	.cfi_def_cfa_offset 16
	.cfi_offset 6, -16
	movq	%rsp, %rbp	#,
	.cfi_def_cfa_register 6
	pushq	%rbx	#
	subq	$56, %rsp	#,
	.cfi_offset 3, -24
	movq	%rdi, -40(%rbp)	# this, this
	movq	%rsi, -48(%rbp)	# view, view
	movl	%edx, -52(%rbp)	# size, size
	movl	%ecx, -56(%rbp)	# distance, distance
# src/main.cc:201:     View(uint8_t *view, point_t size, uint32_t distance) {
	movq	%fs:40, %rax	# MEM[(<address-space-1> long unsigned int *)40B], tmp110
	movq	%rax, -24(%rbp)	# tmp110, D.105990
	xorl	%eax, %eax	# tmp110
# src/main.cc:201:     View(uint8_t *view, point_t size, uint32_t distance) {
	movq	-40(%rbp), %rbx	# this, _1
	leaq	-25(%rbp), %rax	#, tmp89
	movq	%rax, %rdi	# tmp89,
	call	_ZNSaIcEC1Ev@PLT	#
	leaq	-25(%rbp), %rax	#, tmp90
	movq	%rax, %rdx	# tmp90,
	leaq	.LC9(%rip), %rax	#, tmp91
	movq	%rax, %rsi	# tmp91,
	movq	%rbx, %rdi	# _1,
.LEHB0:
	call	_ZNSt7__cxx1112basic_stringIcSt11char_traitsIcESaIcEEC1EPKcRKS3_@PLT	#
.LEHE0:
# src/main.cc:201:     View(uint8_t *view, point_t size, uint32_t distance) {
	leaq	-25(%rbp), %rax	#, tmp92
	movq	%rax, %rdi	# tmp92,
	call	_ZNSaIcED1Ev@PLT	#
	movq	-40(%rbp), %rax	# this, tmp93
	addq	$56, %rax	#, _2
	movq	%rax, %rdi	# _2,
	call	_ZNSt5mutexC1Ev	#
	movq	-40(%rbp), %rax	# this, tmp94
	addq	$104, %rax	#, _3
	movq	%rax, %rdi	# _3,
	call	_ZNSt8functionIFvvEEC1Ev	#
	movq	-40(%rbp), %rax	# this, tmp95
	movb	$3, 136(%rax)	#, this_8(D)->size_info_line
	movq	-40(%rbp), %rax	# this, tmp96
	movb	$0, 142(%rax)	#, this_8(D)->flag_cb_print_info_set
# src/main.cc:202:         set_view_parameters(view, size, distance);
	movl	-56(%rbp), %ecx	# distance, tmp97
	movl	-52(%rbp), %edx	# size, tmp98
	movq	-48(%rbp), %rsi	# view, tmp99
	movq	-40(%rbp), %rax	# this, tmp100
	movq	%rax, %rdi	# tmp100,
	call	_ZN4View19set_view_parametersEPh7POINT_Tj	#
# src/main.cc:203:         cursor_erase_display(2);
	movq	-40(%rbp), %rax	# this, tmp101
	movl	$2, %esi	#,
	movq	%rax, %rdi	# tmp101,
.LEHB1:
	call	_ZN4View20cursor_erase_displayEh	#
# src/main.cc:204:         cursor_hide();
	movq	-40(%rbp), %rax	# this, tmp102
	movq	%rax, %rdi	# tmp102,
	call	_ZN4View11cursor_hideEv	#
.LEHE1:
# src/main.cc:205:     }
	jmp	.L91	#
.L89:
	endbr64	
# src/main.cc:201:     View(uint8_t *view, point_t size, uint32_t distance) {
	movq	%rax, %rbx	#, tmp104
	leaq	-25(%rbp), %rax	#, tmp103
	movq	%rax, %rdi	# tmp103,
	call	_ZNSaIcED1Ev@PLT	#
	movq	%rbx, %rax	# tmp104, D.105988
	movq	%rax, %rdi	# D.105988,
.LEHB2:
	call	_Unwind_Resume@PLT	#
.L90:
	endbr64	
# src/main.cc:205:     }
	movq	%rax, %rbx	#, tmp107
	movq	-40(%rbp), %rax	# this, tmp105
	addq	$104, %rax	#, _4
	movq	%rax, %rdi	# _4,
	call	_ZNSt8functionIFvvEED1Ev	#
# src/main.cc:201:     View(uint8_t *view, point_t size, uint32_t distance) {
	movq	-40(%rbp), %rax	# this, _5
# src/main.cc:205:     }
	movq	%rax, %rdi	# _5,
	call	_ZNSt7__cxx1112basic_stringIcSt11char_traitsIcESaIcEED1Ev@PLT	#
	movq	%rbx, %rax	# tmp106, D.105989
	movq	%rax, %rdi	# D.105989,
	call	_Unwind_Resume@PLT	#
.LEHE2:
.L91:
	movq	-24(%rbp), %rax	# D.105990, tmp111
	subq	%fs:40, %rax	# MEM[(<address-space-1> long unsigned int *)40B], tmp111
	je	.L88	#,
	call	__stack_chk_fail@PLT	#
.L88:
	movq	-8(%rbp), %rbx	#,
	leave	
	.cfi_def_cfa 7, 8
	ret	
	.cfi_endproc
.LFE2862:
	.section	.gcc_except_table._ZN4ViewC2EPh7POINT_Tj,"aG",@progbits,_ZN4ViewC5EPh7POINT_Tj,comdat
.LLSDA2862:
	.byte	0xff
	.byte	0xff
	.byte	0x1
	.uleb128 .LLSDACSE2862-.LLSDACSB2862
.LLSDACSB2862:
	.uleb128 .LEHB0-.LFB2862
	.uleb128 .LEHE0-.LEHB0
	.uleb128 .L89-.LFB2862
	.uleb128 0
	.uleb128 .LEHB1-.LFB2862
	.uleb128 .LEHE1-.LEHB1
	.uleb128 .L90-.LFB2862
	.uleb128 0
	.uleb128 .LEHB2-.LFB2862
	.uleb128 .LEHE2-.LEHB2
	.uleb128 0
	.uleb128 0
.LLSDACSE2862:
	.section	.text._ZN4ViewC2EPh7POINT_Tj,"axG",@progbits,_ZN4ViewC5EPh7POINT_Tj,comdat
	.size	_ZN4ViewC2EPh7POINT_Tj, .-_ZN4ViewC2EPh7POINT_Tj
	.weak	_ZN4ViewC1EPh7POINT_Tj
	.set	_ZN4ViewC1EPh7POINT_Tj,_ZN4ViewC2EPh7POINT_Tj
	.section	.text._ZN4View5resetEv,"axG",@progbits,_ZN4View5resetEv,comdat
	.align 2
	.weak	_ZN4View5resetEv
	.type	_ZN4View5resetEv, @function
_ZN4View5resetEv:
.LFB2864:
	.cfi_startproc
	endbr64	
	pushq	%rbp	#
	.cfi_def_cfa_offset 16
	.cfi_offset 6, -16
	movq	%rsp, %rbp	#,
	.cfi_def_cfa_register 6
	subq	$16, %rsp	#,
	movq	%rdi, -8(%rbp)	# this, this
# src/main.cc:210:     void reset(void) { draw_frame(); }
	movq	-8(%rbp), %rax	# this, tmp82
	movq	%rax, %rdi	# tmp82,
	call	_ZN4View10draw_frameEv	#
# src/main.cc:210:     void reset(void) { draw_frame(); }
	nop	
	leave	
	.cfi_def_cfa 7, 8
	ret	
	.cfi_endproc
.LFE2864:
	.size	_ZN4View5resetEv, .-_ZN4View5resetEv
	.section	.text._ZN4View19set_view_parametersEPh7POINT_Tj,"axG",@progbits,_ZN4View19set_view_parametersEPh7POINT_Tj,comdat
	.align 2
	.weak	_ZN4View19set_view_parametersEPh7POINT_Tj
	.type	_ZN4View19set_view_parametersEPh7POINT_Tj, @function
_ZN4View19set_view_parametersEPh7POINT_Tj:
.LFB2865:
	.cfi_startproc
	endbr64	
	pushq	%rbp	#
	.cfi_def_cfa_offset 16
	.cfi_offset 6, -16
	movq	%rsp, %rbp	#,
	.cfi_def_cfa_register 6
	movq	%rdi, -8(%rbp)	# this, this
	movq	%rsi, -16(%rbp)	# view, view
	movl	%edx, -20(%rbp)	# size, size
	movl	%ecx, -24(%rbp)	# distance, distance
# src/main.cc:220:         view_ptr = view;
	movq	-8(%rbp), %rax	# this, tmp101
	movq	-16(%rbp), %rdx	# view, tmp102
	movq	%rdx, 40(%rax)	# tmp102, this_21(D)->view_ptr
# src/main.cc:221:         view_size = size;
	movq	-8(%rbp), %rax	# this, tmp103
	movl	-20(%rbp), %edx	# size, tmp104
	movl	%edx, 32(%rax)	# tmp104, this_21(D)->view_size
# src/main.cc:222:         view_ptr_line_distance =
	movq	-8(%rbp), %rax	# this, tmp105
	movl	-24(%rbp), %edx	# distance, tmp106
	movl	%edx, 48(%rax)	# tmp106, this_21(D)->view_ptr_line_distance
# src/main.cc:225:         view_user_cursor = {static_cast<int16_t>(view_size.y + 1),
	movq	-8(%rbp), %rax	# this, tmp107
	movzwl	32(%rax), %eax	# this_21(D)->view_size.y, _1
# src/main.cc:225:         view_user_cursor = {static_cast<int16_t>(view_size.y + 1),
	addl	$1, %eax	#, _3
	movl	%eax, %ecx	# _3, _4
# src/main.cc:226:                             static_cast<int16_t>(view_size.x + 1)};
	movq	-8(%rbp), %rax	# this, tmp108
	movzwl	34(%rax), %eax	# this_21(D)->view_size.x, _5
# src/main.cc:226:                             static_cast<int16_t>(view_size.x + 1)};
	addl	$1, %eax	#, _7
	movl	%eax, %edx	# _7, _8
# src/main.cc:225:         view_user_cursor = {static_cast<int16_t>(view_size.y + 1),
	movq	-8(%rbp), %rax	# this, tmp109
	movw	%cx, 96(%rax)	# _4, this_21(D)->view_user_cursor.y
	movq	-8(%rbp), %rax	# this, tmp110
	movw	%dx, 98(%rax)	# _8, this_21(D)->view_user_cursor.x
# src/main.cc:228:         line_input = view_size.y + size_info_line + 3;
	movq	-8(%rbp), %rax	# this, tmp111
	movzwl	32(%rax), %eax	# this_21(D)->view_size.y, _9
	movl	%eax, %edx	# _9, _10
# src/main.cc:228:         line_input = view_size.y + size_info_line + 3;
	movq	-8(%rbp), %rax	# this, tmp112
	movzbl	136(%rax), %eax	# this_21(D)->size_info_line, _11
	movzbl	%al, %eax	# _11, _12
# src/main.cc:228:         line_input = view_size.y + size_info_line + 3;
	addl	%edx, %eax	# _10, _13
# src/main.cc:228:         line_input = view_size.y + size_info_line + 3;
	addl	$3, %eax	#, _14
	movl	%eax, %edx	# _14, _15
# src/main.cc:228:         line_input = view_size.y + size_info_line + 3;
	movq	-8(%rbp), %rax	# this, tmp113
	movw	%dx, 138(%rax)	# _15, this_21(D)->line_input
# src/main.cc:229:         line_info = view_size.y + 2;
	movq	-8(%rbp), %rax	# this, tmp114
	movzwl	32(%rax), %eax	# this_21(D)->view_size.y, _16
# src/main.cc:229:         line_info = view_size.y + 2;
	addl	$2, %eax	#, _18
	movl	%eax, %edx	# _18, _19
# src/main.cc:229:         line_info = view_size.y + 2;
	movq	-8(%rbp), %rax	# this, tmp115
	movw	%dx, 140(%rax)	# _19, this_21(D)->line_info
# src/main.cc:230:     }
	nop	
	popq	%rbp	#
	.cfi_def_cfa 7, 8
	ret	
	.cfi_endproc
.LFE2865:
	.size	_ZN4View19set_view_parametersEPh7POINT_Tj, .-_ZN4View19set_view_parametersEPh7POINT_Tj
	.section	.text._ZN4View18set_print_callbackESt8functionIFvvEE,"axG",@progbits,_ZN4View18set_print_callbackESt8functionIFvvEE,comdat
	.align 2
	.weak	_ZN4View18set_print_callbackESt8functionIFvvEE
	.type	_ZN4View18set_print_callbackESt8functionIFvvEE, @function
_ZN4View18set_print_callbackESt8functionIFvvEE:
.LFB2866:
	.cfi_startproc
	endbr64	
	pushq	%rbp	#
	.cfi_def_cfa_offset 16
	.cfi_offset 6, -16
	movq	%rsp, %rbp	#,
	.cfi_def_cfa_register 6
	subq	$16, %rsp	#,
	movq	%rdi, -8(%rbp)	# this, this
	movq	%rsi, -16(%rbp)	# cb, cb
# src/main.cc:237:         cb_print_info = cb;
	movq	-8(%rbp), %rax	# this, tmp83
	leaq	104(%rax), %rdx	#, _1
	movq	-16(%rbp), %rax	# cb, tmp84
	movq	%rax, %rsi	# tmp84,
	movq	%rdx, %rdi	# _1,
	call	_ZNSt8functionIFvvEEaSERKS1_	#
# src/main.cc:238:         flag_cb_print_info_set = true;
	movq	-8(%rbp), %rax	# this, tmp85
	movb	$1, 142(%rax)	#, this_2(D)->flag_cb_print_info_set
# src/main.cc:239:     }
	nop	
	leave	
	.cfi_def_cfa 7, 8
	ret	
	.cfi_endproc
.LFE2866:
	.size	_ZN4View18set_print_callbackESt8functionIFvvEE, .-_ZN4View18set_print_callbackESt8functionIFvvEE
	.section	.text._ZN4View10draw_frameEv,"axG",@progbits,_ZN4View10draw_frameEv,comdat
	.align 2
	.weak	_ZN4View10draw_frameEv
	.type	_ZN4View10draw_frameEv, @function
_ZN4View10draw_frameEv:
.LFB2867:
	.cfi_startproc
	.cfi_personality 0x9b,DW.ref.__gxx_personality_v0
	.cfi_lsda 0x1b,.LLSDA2867
	endbr64	
	pushq	%rbp	#
	.cfi_def_cfa_offset 16
	.cfi_offset 6, -16
	movq	%rsp, %rbp	#,
	.cfi_def_cfa_register 6
	pushq	%rbx	#
	subq	$56, %rsp	#,
	.cfi_offset 3, -24
	movq	%rdi, -56(%rbp)	# this, this
# src/main.cc:244:     void draw_frame(void) {
	movq	%fs:40, %rax	# MEM[(<address-space-1> long unsigned int *)40B], tmp128
	movq	%rax, -24(%rbp)	# tmp128, D.105993
	xorl	%eax, %eax	# tmp128
# src/main.cc:245:         const std::lock_guard<std::mutex> lock(mutex_cursor);
	movq	-56(%rbp), %rax	# this, tmp101
	leaq	56(%rax), %rdx	#, _1
# src/main.cc:245:         const std::lock_guard<std::mutex> lock(mutex_cursor);
	leaq	-32(%rbp), %rax	#, tmp102
	movq	%rdx, %rsi	# _1,
	movq	%rax, %rdi	# tmp102,
.LEHB3:
	call	_ZNSt10lock_guardISt5mutexEC1ERS0_	#
.LEHE3:
# src/main.cc:246:         const char info_frame_character = '-';
	movb	$45, -35(%rbp)	#, info_frame_character
# src/main.cc:249:         cursor_erase_display(2);
	movq	-56(%rbp), %rax	# this, tmp103
	movl	$2, %esi	#,
	movq	%rax, %rdi	# tmp103,
.LEHB4:
	call	_ZN4View20cursor_erase_displayEh	#
# src/main.cc:251:             point_t{static_cast<int16_t>(view_size.y + 1), 1});
	movq	-56(%rbp), %rax	# this, tmp104
	movzwl	32(%rax), %eax	# this_26(D)->view_size.y, _2
# src/main.cc:251:             point_t{static_cast<int16_t>(view_size.y + 1), 1});
	addl	$1, %eax	#, _4
# src/main.cc:250:         cursor_move(
	movw	%ax, %bx	# _5, D.103362
	movzwl	%bx, %eax	# D.103362, tmp106
	orl	$65536, %eax	#, tmp107
	movl	%eax, %ebx	# tmp107, D.103362
	movq	-56(%rbp), %rax	# this, tmp108
	movl	%ebx, %esi	# D.103362,
	movq	%rax, %rdi	# tmp108,
	call	_ZN4View11cursor_moveE7POINT_T	#
# src/main.cc:253:         for (i = 0; i < view_size.x; i++) {
	movw	$0, -34(%rbp)	#, i
# src/main.cc:253:         for (i = 0; i < view_size.x; i++) {
	jmp	.L96	#
.L97:
# src/main.cc:254:             std::cout << info_frame_character;
	movl	$45, %esi	#,
	leaq	_ZSt4cout(%rip), %rax	#, tmp109
	movq	%rax, %rdi	# tmp109,
	call	_ZStlsISt11char_traitsIcEERSt13basic_ostreamIcT_ES5_c@PLT	#
# src/main.cc:253:         for (i = 0; i < view_size.x; i++) {
	movzwl	-34(%rbp), %eax	# i, i.22_6
	addl	$1, %eax	#, tmp110
	movw	%ax, -34(%rbp)	# tmp110, i
.L96:
# src/main.cc:253:         for (i = 0; i < view_size.x; i++) {
	movzwl	-34(%rbp), %edx	# i, _7
# src/main.cc:253:         for (i = 0; i < view_size.x; i++) {
	movq	-56(%rbp), %rax	# this, tmp111
	movzwl	34(%rax), %eax	# this_26(D)->view_size.x, _8
	cwtl
# src/main.cc:253:         for (i = 0; i < view_size.x; i++) {
	cmpl	%eax, %edx	# _9, _7
	jl	.L97	#,
# src/main.cc:256:         for (i = 0; i <= size_info_line; i++) {
	movw	$0, -34(%rbp)	#, i
# src/main.cc:256:         for (i = 0; i <= size_info_line; i++) {
	jmp	.L98	#
.L99:
# src/main.cc:257:             std::cout << std::endl;
	movq	_ZSt4endlIcSt11char_traitsIcEERSt13basic_ostreamIT_T0_ES6_@GOTPCREL(%rip), %rax	#, tmp113
	movq	%rax, %rsi	# tmp112,
	leaq	_ZSt4cout(%rip), %rax	#, tmp114
	movq	%rax, %rdi	# tmp114,
	call	_ZNSolsEPFRSoS_E@PLT	#
# src/main.cc:256:         for (i = 0; i <= size_info_line; i++) {
	movzwl	-34(%rbp), %eax	# i, i.23_10
	addl	$1, %eax	#, tmp115
	movw	%ax, -34(%rbp)	# tmp115, i
.L98:
# src/main.cc:256:         for (i = 0; i <= size_info_line; i++) {
	movq	-56(%rbp), %rax	# this, tmp116
	movzbl	136(%rax), %eax	# this_26(D)->size_info_line, _11
# src/main.cc:256:         for (i = 0; i <= size_info_line; i++) {
	movzbl	%al, %eax	# _11, _12
	cmpw	%ax, -34(%rbp)	# _12, i
	jbe	.L99	#,
# src/main.cc:259:         for (i = 0; i < view_size.x; i++) {
	movw	$0, -34(%rbp)	#, i
# src/main.cc:259:         for (i = 0; i < view_size.x; i++) {
	jmp	.L100	#
.L101:
# src/main.cc:260:             std::cout << info_frame_character;
	movl	$45, %esi	#,
	leaq	_ZSt4cout(%rip), %rax	#, tmp117
	movq	%rax, %rdi	# tmp117,
	call	_ZStlsISt11char_traitsIcEERSt13basic_ostreamIcT_ES5_c@PLT	#
# src/main.cc:259:         for (i = 0; i < view_size.x; i++) {
	movzwl	-34(%rbp), %eax	# i, i.24_13
	addl	$1, %eax	#, tmp118
	movw	%ax, -34(%rbp)	# tmp118, i
.L100:
# src/main.cc:259:         for (i = 0; i < view_size.x; i++) {
	movzwl	-34(%rbp), %edx	# i, _14
# src/main.cc:259:         for (i = 0; i < view_size.x; i++) {
	movq	-56(%rbp), %rax	# this, tmp119
	movzwl	34(%rax), %eax	# this_26(D)->view_size.x, _15
	cwtl
# src/main.cc:259:         for (i = 0; i < view_size.x; i++) {
	cmpl	%eax, %edx	# _16, _14
	jl	.L101	#,
# src/main.cc:263:         std::cout << std::endl;
	movq	_ZSt4endlIcSt11char_traitsIcEERSt13basic_ostreamIT_T0_ES6_@GOTPCREL(%rip), %rax	#, tmp121
	movq	%rax, %rsi	# tmp120,
	leaq	_ZSt4cout(%rip), %rax	#, tmp122
	movq	%rax, %rdi	# tmp122,
	call	_ZNSolsEPFRSoS_E@PLT	#
# src/main.cc:264:         std::cout << input_start_string;
	movq	-56(%rbp), %rax	# this, _17
	movq	%rax, %rsi	# _17,
	leaq	_ZSt4cout(%rip), %rax	#, tmp123
	movq	%rax, %rdi	# tmp123,
	call	_ZStlsIcSt11char_traitsIcESaIcEERSt13basic_ostreamIT_T0_ES7_RKNSt7__cxx1112basic_stringIS4_S5_T1_EE@PLT	#
# src/main.cc:265:         cursor_show();
	movq	-56(%rbp), %rax	# this, tmp124
	movq	%rax, %rdi	# tmp124,
	call	_ZN4View11cursor_showEv	#
.LEHE4:
# src/main.cc:266:     }
	leaq	-32(%rbp), %rax	#, tmp125
	movq	%rax, %rdi	# tmp125,
	call	_ZNSt10lock_guardISt5mutexED1Ev	#
	movq	-24(%rbp), %rax	# D.105993, tmp129
	subq	%fs:40, %rax	# MEM[(<address-space-1> long unsigned int *)40B], tmp129
	je	.L103	#,
	jmp	.L105	#
.L104:
	endbr64	
	movq	%rax, %rbx	#, tmp127
	leaq	-32(%rbp), %rax	#, tmp126
	movq	%rax, %rdi	# tmp126,
	call	_ZNSt10lock_guardISt5mutexED1Ev	#
	movq	%rbx, %rax	# tmp127, D.105992
	movq	%rax, %rdi	# D.105992,
.LEHB5:
	call	_Unwind_Resume@PLT	#
.LEHE5:
.L105:
	call	__stack_chk_fail@PLT	#
.L103:
	movq	-8(%rbp), %rbx	#,
	leave	
	.cfi_def_cfa 7, 8
	ret	
	.cfi_endproc
.LFE2867:
	.section	.gcc_except_table._ZN4View10draw_frameEv,"aG",@progbits,_ZN4View10draw_frameEv,comdat
.LLSDA2867:
	.byte	0xff
	.byte	0xff
	.byte	0x1
	.uleb128 .LLSDACSE2867-.LLSDACSB2867
.LLSDACSB2867:
	.uleb128 .LEHB3-.LFB2867
	.uleb128 .LEHE3-.LEHB3
	.uleb128 0
	.uleb128 0
	.uleb128 .LEHB4-.LFB2867
	.uleb128 .LEHE4-.LEHB4
	.uleb128 .L104-.LFB2867
	.uleb128 0
	.uleb128 .LEHB5-.LFB2867
	.uleb128 .LEHE5-.LEHB5
	.uleb128 0
	.uleb128 0
.LLSDACSE2867:
	.section	.text._ZN4View10draw_frameEv,"axG",@progbits,_ZN4View10draw_frameEv,comdat
	.size	_ZN4View10draw_frameEv, .-_ZN4View10draw_frameEv
	.section	.text._ZN4View12refresh_infoEv,"axG",@progbits,_ZN4View12refresh_infoEv,comdat
	.align 2
	.weak	_ZN4View12refresh_infoEv
	.type	_ZN4View12refresh_infoEv, @function
_ZN4View12refresh_infoEv:
.LFB2868:
	.cfi_startproc
	endbr64	
	pushq	%rbp	#
	.cfi_def_cfa_offset 16
	.cfi_offset 6, -16
	movq	%rsp, %rbp	#,
	.cfi_def_cfa_register 6
	subq	$16, %rsp	#,
	movq	%rdi, -8(%rbp)	# this, this
# src/main.cc:272:         cursor_save();
	movq	-8(%rbp), %rax	# this, tmp84
	movq	%rax, %rdi	# tmp84,
	call	_ZN4View11cursor_saveEv	#
# src/main.cc:273:         cursor_move_info();
	movq	-8(%rbp), %rax	# this, tmp85
	movq	%rax, %rdi	# tmp85,
	call	_ZN4View16cursor_move_infoEv	#
# src/main.cc:274:         cursor_erase_line(0);
	movq	-8(%rbp), %rax	# this, tmp86
	movl	$0, %esi	#,
	movq	%rax, %rdi	# tmp86,
	call	_ZN4View17cursor_erase_lineEh	#
# src/main.cc:275:         if (flag_cb_print_info_set) {
	movq	-8(%rbp), %rax	# this, tmp87
	movzbl	142(%rax), %eax	# this_5(D)->flag_cb_print_info_set, _1
# src/main.cc:275:         if (flag_cb_print_info_set) {
	testb	%al, %al	# _1
	je	.L107	#,
# src/main.cc:276:             cb_print_info();
	movq	-8(%rbp), %rax	# this, tmp88
	addq	$104, %rax	#, _2
	movq	%rax, %rdi	# _2,
	call	_ZNKSt8functionIFvvEEclEv	#
.L107:
# src/main.cc:278:         cursor_restore();
	movq	-8(%rbp), %rax	# this, tmp89
	movq	%rax, %rdi	# tmp89,
	call	_ZN4View14cursor_restoreEv	#
# src/main.cc:279:     }
	nop	
	leave	
	.cfi_def_cfa 7, 8
	ret	
	.cfi_endproc
.LFE2868:
	.size	_ZN4View12refresh_infoEv, .-_ZN4View12refresh_infoEv
	.section	.text._ZN4View13refresh_inputEv,"axG",@progbits,_ZN4View13refresh_inputEv,comdat
	.align 2
	.weak	_ZN4View13refresh_inputEv
	.type	_ZN4View13refresh_inputEv, @function
_ZN4View13refresh_inputEv:
.LFB2869:
	.cfi_startproc
	.cfi_personality 0x9b,DW.ref.__gxx_personality_v0
	.cfi_lsda 0x1b,.LLSDA2869
	endbr64	
	pushq	%rbp	#
	.cfi_def_cfa_offset 16
	.cfi_offset 6, -16
	movq	%rsp, %rbp	#,
	.cfi_def_cfa_register 6
	pushq	%rbx	#
	subq	$40, %rsp	#,
	.cfi_offset 3, -24
	movq	%rdi, -40(%rbp)	# this, this
# src/main.cc:284:     void refresh_input(void) {
	movq	%fs:40, %rax	# MEM[(<address-space-1> long unsigned int *)40B], tmp96
	movq	%rax, -24(%rbp)	# tmp96, D.105995
	xorl	%eax, %eax	# tmp96
# src/main.cc:285:         const std::lock_guard<std::mutex> lock(mutex_cursor);
	movq	-40(%rbp), %rax	# this, tmp86
	leaq	56(%rax), %rdx	#, _1
# src/main.cc:285:         const std::lock_guard<std::mutex> lock(mutex_cursor);
	leaq	-32(%rbp), %rax	#, tmp87
	movq	%rdx, %rsi	# _1,
	movq	%rax, %rdi	# tmp87,
.LEHB6:
	call	_ZNSt10lock_guardISt5mutexEC1ERS0_	#
.LEHE6:
# src/main.cc:286:         cursor_move_input();
	movq	-40(%rbp), %rax	# this, tmp88
	movq	%rax, %rdi	# tmp88,
.LEHB7:
	call	_ZN4View17cursor_move_inputEv	#
# src/main.cc:287:         cursor_erase_line(0);
	movq	-40(%rbp), %rax	# this, tmp89
	movl	$0, %esi	#,
	movq	%rax, %rdi	# tmp89,
	call	_ZN4View17cursor_erase_lineEh	#
# src/main.cc:288:         std::cout << input_start_string << std::flush;
	movq	-40(%rbp), %rax	# this, _2
	movq	%rax, %rsi	# _2,
	leaq	_ZSt4cout(%rip), %rax	#, tmp90
	movq	%rax, %rdi	# tmp90,
	call	_ZStlsIcSt11char_traitsIcESaIcEERSt13basic_ostreamIT_T0_ES7_RKNSt7__cxx1112basic_stringIS4_S5_T1_EE@PLT	#
# src/main.cc:288:         std::cout << input_start_string << std::flush;
	movq	_ZSt5flushIcSt11char_traitsIcEERSt13basic_ostreamIT_T0_ES6_@GOTPCREL(%rip), %rdx	#, tmp92
	movq	%rdx, %rsi	# tmp91,
	movq	%rax, %rdi	# _3,
	call	_ZNSolsEPFRSoS_E@PLT	#
.LEHE7:
# src/main.cc:289:     }
	leaq	-32(%rbp), %rax	#, tmp93
	movq	%rax, %rdi	# tmp93,
	call	_ZNSt10lock_guardISt5mutexED1Ev	#
	movq	-24(%rbp), %rax	# D.105995, tmp97
	subq	%fs:40, %rax	# MEM[(<address-space-1> long unsigned int *)40B], tmp97
	je	.L110	#,
	jmp	.L112	#
.L111:
	endbr64	
	movq	%rax, %rbx	#, tmp95
	leaq	-32(%rbp), %rax	#, tmp94
	movq	%rax, %rdi	# tmp94,
	call	_ZNSt10lock_guardISt5mutexED1Ev	#
	movq	%rbx, %rax	# tmp95, D.105994
	movq	%rax, %rdi	# D.105994,
.LEHB8:
	call	_Unwind_Resume@PLT	#
.LEHE8:
.L112:
	call	__stack_chk_fail@PLT	#
.L110:
	movq	-8(%rbp), %rbx	#,
	leave	
	.cfi_def_cfa 7, 8
	ret	
	.cfi_endproc
.LFE2869:
	.section	.gcc_except_table._ZN4View13refresh_inputEv,"aG",@progbits,_ZN4View13refresh_inputEv,comdat
.LLSDA2869:
	.byte	0xff
	.byte	0xff
	.byte	0x1
	.uleb128 .LLSDACSE2869-.LLSDACSB2869
.LLSDACSB2869:
	.uleb128 .LEHB6-.LFB2869
	.uleb128 .LEHE6-.LEHB6
	.uleb128 0
	.uleb128 0
	.uleb128 .LEHB7-.LFB2869
	.uleb128 .LEHE7-.LEHB7
	.uleb128 .L111-.LFB2869
	.uleb128 0
	.uleb128 .LEHB8-.LFB2869
	.uleb128 .LEHE8-.LEHB8
	.uleb128 0
	.uleb128 0
.LLSDACSE2869:
	.section	.text._ZN4View13refresh_inputEv,"axG",@progbits,_ZN4View13refresh_inputEv,comdat
	.size	_ZN4View13refresh_inputEv, .-_ZN4View13refresh_inputEv
	.section	.text._ZN4View19get_pos_cursor_userEv,"axG",@progbits,_ZN4View19get_pos_cursor_userEv,comdat
	.align 2
	.weak	_ZN4View19get_pos_cursor_userEv
	.type	_ZN4View19get_pos_cursor_userEv, @function
_ZN4View19get_pos_cursor_userEv:
.LFB2870:
	.cfi_startproc
	endbr64	
	pushq	%rbp	#
	.cfi_def_cfa_offset 16
	.cfi_offset 6, -16
	movq	%rsp, %rbp	#,
	.cfi_def_cfa_register 6
	movq	%rdi, -8(%rbp)	# this, this
# src/main.cc:295:     point_t get_pos_cursor_user(void) { return view_user_cursor; }
	movq	-8(%rbp), %rax	# this, tmp84
	movl	96(%rax), %eax	# this_2(D)->view_user_cursor, D.103307
# src/main.cc:295:     point_t get_pos_cursor_user(void) { return view_user_cursor; }
	popq	%rbp	#
	.cfi_def_cfa 7, 8
	ret	
	.cfi_endproc
.LFE2870:
	.size	_ZN4View19get_pos_cursor_userEv, .-_ZN4View19get_pos_cursor_userEv
	.section	.text._ZN4View19set_user_cursor_posE7POINT_T,"axG",@progbits,_ZN4View19set_user_cursor_posE7POINT_T,comdat
	.align 2
	.weak	_ZN4View19set_user_cursor_posE7POINT_T
	.type	_ZN4View19set_user_cursor_posE7POINT_T, @function
_ZN4View19set_user_cursor_posE7POINT_T:
.LFB2871:
	.cfi_startproc
	endbr64	
	pushq	%rbp	#
	.cfi_def_cfa_offset 16
	.cfi_offset 6, -16
	movq	%rsp, %rbp	#,
	.cfi_def_cfa_register 6
	pushq	%rbx	#
	subq	$16, %rsp	#,
	.cfi_offset 3, -24
	movq	%rdi, -16(%rbp)	# this, this
	movl	%esi, -20(%rbp)	# pos, pos
# src/main.cc:303:             limit(pos.y, view_size.y - 1, 0),
	movq	-16(%rbp), %rax	# this, tmp98
	movzwl	32(%rax), %eax	# this_18(D)->view_size.y, _1
# src/main.cc:303:             limit(pos.y, view_size.y - 1, 0),
	subl	$1, %eax	#, _3
# src/main.cc:303:             limit(pos.y, view_size.y - 1, 0),
	movswl	%ax, %ecx	# _4, _5
# src/main.cc:303:             limit(pos.y, view_size.y - 1, 0),
	movzwl	-20(%rbp), %eax	# pos.y, _6
# src/main.cc:303:             limit(pos.y, view_size.y - 1, 0),
	cwtl
	movl	$0, %edx	#,
	movl	%ecx, %esi	# _5,
	movl	%eax, %edi	# _7,
	call	_Z5limitsss	#
	movl	%eax, %ebx	#, _8
# src/main.cc:304:             limit(pos.x, view_size.x - 1, 0),
	movq	-16(%rbp), %rax	# this, tmp99
	movzwl	34(%rax), %eax	# this_18(D)->view_size.x, _9
# src/main.cc:304:             limit(pos.x, view_size.x - 1, 0),
	subl	$1, %eax	#, _11
# src/main.cc:304:             limit(pos.x, view_size.x - 1, 0),
	movswl	%ax, %ecx	# _12, _13
# src/main.cc:304:             limit(pos.x, view_size.x - 1, 0),
	movzwl	-18(%rbp), %eax	# pos.x, _14
# src/main.cc:304:             limit(pos.x, view_size.x - 1, 0),
	cwtl
	movl	$0, %edx	#,
	movl	%ecx, %esi	# _13,
	movl	%eax, %edi	# _15,
	call	_Z5limitsss	#
# src/main.cc:302:         view_user_cursor = {
	movq	-16(%rbp), %rdx	# this, tmp100
	movw	%bx, 96(%rdx)	# _8, this_18(D)->view_user_cursor.y
	movq	-16(%rbp), %rdx	# this, tmp101
	movw	%ax, 98(%rdx)	# _16, this_18(D)->view_user_cursor.x
# src/main.cc:306:     }
	nop	
	movq	-8(%rbp), %rbx	#,
	leave	
	.cfi_def_cfa 7, 8
	ret	
	.cfi_endproc
.LFE2871:
	.size	_ZN4View19set_user_cursor_posE7POINT_T, .-_ZN4View19set_user_cursor_posE7POINT_T
	.section	.rodata
.LC10:
	.string	"\b\033[105;31m"
.LC11:
	.string	"\033[39;49m"
	.section	.text._ZN4View12refresh_viewEv,"axG",@progbits,_ZN4View12refresh_viewEv,comdat
	.align 2
	.weak	_ZN4View12refresh_viewEv
	.type	_ZN4View12refresh_viewEv, @function
_ZN4View12refresh_viewEv:
.LFB2873:
	.cfi_startproc
	.cfi_personality 0x9b,DW.ref.__gxx_personality_v0
	.cfi_lsda 0x1b,.LLSDA2873
	endbr64	
	pushq	%rbp	#
	.cfi_def_cfa_offset 16
	.cfi_offset 6, -16
	movq	%rsp, %rbp	#,
	.cfi_def_cfa_register 6
	pushq	%rbx	#
	subq	$56, %rsp	#,
	.cfi_offset 3, -24
	movq	%rdi, -56(%rbp)	# this, this
# src/main.cc:317:     void refresh_view(void) {
	movq	%fs:40, %rax	# MEM[(<address-space-1> long unsigned int *)40B], tmp158
	movq	%rax, -24(%rbp)	# tmp158, D.105997
	xorl	%eax, %eax	# tmp158
# src/main.cc:318:         const std::lock_guard<std::mutex> lock(mutex_cursor);
	movq	-56(%rbp), %rax	# this, tmp118
	leaq	56(%rax), %rdx	#, _1
# src/main.cc:318:         const std::lock_guard<std::mutex> lock(mutex_cursor);
	leaq	-40(%rbp), %rax	#, tmp119
	movq	%rdx, %rsi	# _1,
	movq	%rax, %rdi	# tmp119,
.LEHB9:
	call	_ZNSt10lock_guardISt5mutexEC1ERS0_	#
.LEHE9:
# src/main.cc:319:         uint8_t *ptr = view_ptr;
	movq	-56(%rbp), %rax	# this, tmp120
	movq	40(%rax), %rax	# this_43(D)->view_ptr, tmp121
	movq	%rax, -32(%rbp)	# tmp121, ptr
# src/main.cc:323:         cursor_save();
	movq	-56(%rbp), %rax	# this, tmp122
	movq	%rax, %rdi	# tmp122,
.LEHB10:
	call	_ZN4View11cursor_saveEv	#
# src/main.cc:324:         cursor_move_end();
	movq	-56(%rbp), %rax	# this, tmp123
	movq	%rax, %rdi	# tmp123,
	call	_ZN4View15cursor_move_endEv	#
# src/main.cc:325:         cursor_erase_display(1);
	movq	-56(%rbp), %rax	# this, tmp124
	movl	$1, %esi	#,
	movq	%rax, %rdi	# tmp124,
	call	_ZN4View20cursor_erase_displayEh	#
# src/main.cc:326:         cursor_move_start();
	movq	-56(%rbp), %rax	# this, tmp125
	movq	%rax, %rdi	# tmp125,
	call	_ZN4View17cursor_move_startEv	#
# src/main.cc:328:         for (y = view_size.y; y > 0; y--) {
	movq	-56(%rbp), %rax	# this, tmp126
	movzwl	32(%rax), %eax	# this_43(D)->view_size.y, _2
# src/main.cc:328:         for (y = view_size.y; y > 0; y--) {
	movw	%ax, -42(%rbp)	# _2, y
# src/main.cc:328:         for (y = view_size.y; y > 0; y--) {
	jmp	.L117	#
.L120:
# src/main.cc:329:             for (x = view_size.x; x > 0; x--) {
	movq	-56(%rbp), %rax	# this, tmp127
	movzwl	34(%rax), %eax	# this_43(D)->view_size.x, _3
# src/main.cc:329:             for (x = view_size.x; x > 0; x--) {
	movw	%ax, -44(%rbp)	# _3, x
# src/main.cc:329:             for (x = view_size.x; x > 0; x--) {
	jmp	.L118	#
.L119:
# src/main.cc:330:                 std::cout << *ptr;
	movq	-32(%rbp), %rax	# ptr, tmp128
	movzbl	(%rax), %eax	# *ptr_35, _4
# src/main.cc:330:                 std::cout << *ptr;
	movzbl	%al, %eax	# _4, _5
	movl	%eax, %esi	# _5,
	leaq	_ZSt4cout(%rip), %rax	#, tmp129
	movq	%rax, %rdi	# tmp129,
	call	_ZStlsISt11char_traitsIcEERSt13basic_ostreamIcT_ES5_h@PLT	#
# src/main.cc:331:                 ptr++;
	addq	$1, -32(%rbp)	#, ptr
# src/main.cc:329:             for (x = view_size.x; x > 0; x--) {
	movzwl	-44(%rbp), %eax	# x, x.18_6
	subl	$1, %eax	#, tmp130
	movw	%ax, -44(%rbp)	# tmp130, x
.L118:
# src/main.cc:329:             for (x = view_size.x; x > 0; x--) {
	cmpw	$0, -44(%rbp)	#, x
	jne	.L119	#,
# src/main.cc:333:             std::cout << std::endl;
	movq	_ZSt4endlIcSt11char_traitsIcEERSt13basic_ostreamIT_T0_ES6_@GOTPCREL(%rip), %rax	#, tmp132
	movq	%rax, %rsi	# tmp131,
	leaq	_ZSt4cout(%rip), %rax	#, tmp133
	movq	%rax, %rdi	# tmp133,
	call	_ZNSolsEPFRSoS_E@PLT	#
# src/main.cc:334:             ptr += view_ptr_line_distance - view_size.x;
	movq	-56(%rbp), %rax	# this, tmp134
	movl	48(%rax), %edx	# this_43(D)->view_ptr_line_distance, _7
# src/main.cc:334:             ptr += view_ptr_line_distance - view_size.x;
	movq	-56(%rbp), %rax	# this, tmp135
	movzwl	34(%rax), %eax	# this_43(D)->view_size.x, _8
	cwtl
# src/main.cc:334:             ptr += view_ptr_line_distance - view_size.x;
	subl	%eax, %edx	# _9, _10
	movl	%edx, %eax	# _10, _11
# src/main.cc:334:             ptr += view_ptr_line_distance - view_size.x;
	addq	%rax, -32(%rbp)	# _11, ptr
# src/main.cc:328:         for (y = view_size.y; y > 0; y--) {
	movzwl	-42(%rbp), %eax	# y, y.19_12
	subl	$1, %eax	#, tmp136
	movw	%ax, -42(%rbp)	# tmp136, y
.L117:
# src/main.cc:328:         for (y = view_size.y; y > 0; y--) {
	cmpw	$0, -42(%rbp)	#, y
	jne	.L120	#,
# src/main.cc:339:             static_cast<int16_t>(view_user_cursor.y + 1),
	movq	-56(%rbp), %rax	# this, tmp137
	movzwl	96(%rax), %eax	# this_43(D)->view_user_cursor.y, _13
# src/main.cc:339:             static_cast<int16_t>(view_user_cursor.y + 1),
	addl	$1, %eax	#, _15
# src/main.cc:338:         cursor_move(point_t{
	movw	%ax, %bx	# _16, D.103319
# src/main.cc:341:                 view_user_cursor.x +
	movq	-56(%rbp), %rax	# this, tmp138
	movzwl	98(%rax), %eax	# this_43(D)->view_user_cursor.x, _17
# src/main.cc:341:                 view_user_cursor.x +
	addl	$2, %eax	#, _19
# src/main.cc:338:         cursor_move(point_t{
	movzwl	%ax, %eax	# _20, tmp139
	sall	$16, %eax	#, tmp139
	movl	%eax, %edx	# tmp139, tmp140
	movzwl	%bx, %eax	# D.103319, tmp141
	orl	%edx, %eax	# tmp140, tmp142
	movl	%eax, %ebx	# tmp142, D.103319
	movq	-56(%rbp), %rax	# this, tmp143
	movl	%ebx, %esi	# D.103319,
	movq	%rax, %rdi	# tmp143,
	call	_ZN4View11cursor_moveE7POINT_T	#
# src/main.cc:349:                   << "\033[39;49m";
	leaq	.LC10(%rip), %rax	#, tmp144
	movq	%rax, %rsi	# tmp144,
	leaq	_ZSt4cout(%rip), %rax	#, tmp145
	movq	%rax, %rdi	# tmp145,
	call	_ZStlsISt11char_traitsIcEERSt13basic_ostreamIcT_ES5_PKc@PLT	#
	movq	%rax, %rdx	#, _21
# src/main.cc:345:                   << *(view_ptr +
	movq	-56(%rbp), %rax	# this, tmp146
	movq	40(%rax), %rsi	# this_43(D)->view_ptr, _22
# src/main.cc:346:                        view_ptr_line_distance * view_user_cursor.y +
	movq	-56(%rbp), %rax	# this, tmp147
	movl	48(%rax), %ecx	# this_43(D)->view_ptr_line_distance, _23
# src/main.cc:346:                        view_ptr_line_distance * view_user_cursor.y +
	movq	-56(%rbp), %rax	# this, tmp148
	movzwl	96(%rax), %eax	# this_43(D)->view_user_cursor.y, _24
	cwtl
# src/main.cc:346:                        view_ptr_line_distance * view_user_cursor.y +
	imull	%ecx, %eax	# _23, _26
	movl	%eax, %ecx	# _26, _27
# src/main.cc:347:                        view_user_cursor.x)
	movq	-56(%rbp), %rax	# this, tmp149
	movzwl	98(%rax), %eax	# this_43(D)->view_user_cursor.x, _28
	movswq	%ax, %rax	# _28, _29
# src/main.cc:346:                        view_ptr_line_distance * view_user_cursor.y +
	addq	%rcx, %rax	# _27, _30
	addq	%rsi, %rax	# _22, _31
# src/main.cc:345:                   << *(view_ptr +
	movzbl	(%rax), %eax	# *_31, _32
# src/main.cc:349:                   << "\033[39;49m";
	movzbl	%al, %eax	# _32, _33
	movl	%eax, %esi	# _33,
	movq	%rdx, %rdi	# _21,
	call	_ZStlsISt11char_traitsIcEERSt13basic_ostreamIcT_ES5_h@PLT	#
# src/main.cc:349:                   << "\033[39;49m";
	movq	%rax, %rdx	#, _34
	leaq	.LC11(%rip), %rax	#, tmp150
	movq	%rax, %rsi	# tmp150,
	movq	%rdx, %rdi	# _34,
	call	_ZStlsISt11char_traitsIcEERSt13basic_ostreamIcT_ES5_PKc@PLT	#
# src/main.cc:351:         std::cout << std::flush;
	movq	_ZSt5flushIcSt11char_traitsIcEERSt13basic_ostreamIT_T0_ES6_@GOTPCREL(%rip), %rax	#, tmp152
	movq	%rax, %rsi	# tmp151,
	leaq	_ZSt4cout(%rip), %rax	#, tmp153
	movq	%rax, %rdi	# tmp153,
	call	_ZNSolsEPFRSoS_E@PLT	#
# src/main.cc:352:         cursor_restore();
	movq	-56(%rbp), %rax	# this, tmp154
	movq	%rax, %rdi	# tmp154,
	call	_ZN4View14cursor_restoreEv	#
.LEHE10:
# src/main.cc:353:     }
	leaq	-40(%rbp), %rax	#, tmp155
	movq	%rax, %rdi	# tmp155,
	call	_ZNSt10lock_guardISt5mutexED1Ev	#
	movq	-24(%rbp), %rax	# D.105997, tmp159
	subq	%fs:40, %rax	# MEM[(<address-space-1> long unsigned int *)40B], tmp159
	je	.L122	#,
	jmp	.L124	#
.L123:
	endbr64	
	movq	%rax, %rbx	#, tmp157
	leaq	-40(%rbp), %rax	#, tmp156
	movq	%rax, %rdi	# tmp156,
	call	_ZNSt10lock_guardISt5mutexED1Ev	#
	movq	%rbx, %rax	# tmp157, D.105996
	movq	%rax, %rdi	# D.105996,
.LEHB11:
	call	_Unwind_Resume@PLT	#
.LEHE11:
.L124:
	call	__stack_chk_fail@PLT	#
.L122:
	movq	-8(%rbp), %rbx	#,
	leave	
	.cfi_def_cfa 7, 8
	ret	
	.cfi_endproc
.LFE2873:
	.section	.gcc_except_table._ZN4View12refresh_viewEv,"aG",@progbits,_ZN4View12refresh_viewEv,comdat
.LLSDA2873:
	.byte	0xff
	.byte	0xff
	.byte	0x1
	.uleb128 .LLSDACSE2873-.LLSDACSB2873
.LLSDACSB2873:
	.uleb128 .LEHB9-.LFB2873
	.uleb128 .LEHE9-.LEHB9
	.uleb128 0
	.uleb128 0
	.uleb128 .LEHB10-.LFB2873
	.uleb128 .LEHE10-.LEHB10
	.uleb128 .L123-.LFB2873
	.uleb128 0
	.uleb128 .LEHB11-.LFB2873
	.uleb128 .LEHE11-.LEHB11
	.uleb128 0
	.uleb128 0
.LLSDACSE2873:
	.section	.text._ZN4View12refresh_viewEv,"axG",@progbits,_ZN4View12refresh_viewEv,comdat
	.size	_ZN4View12refresh_viewEv, .-_ZN4View12refresh_viewEv
	.section	.text._ZN5World27world_storage_get_value_ptrEPh,"axG",@progbits,_ZN5World27world_storage_get_value_ptrEPh,comdat
	.align 2
	.weak	_ZN5World27world_storage_get_value_ptrEPh
	.type	_ZN5World27world_storage_get_value_ptrEPh, @function
_ZN5World27world_storage_get_value_ptrEPh:
.LFB2874:
	.cfi_startproc
	endbr64	
	pushq	%rbp	#
	.cfi_def_cfa_offset 16
	.cfi_offset 6, -16
	movq	%rsp, %rbp	#,
	.cfi_def_cfa_register 6
	movq	%rdi, -8(%rbp)	# this, this
	movq	%rsi, -16(%rbp)	# ptr, ptr
# src/main.cc:411:         return ptr + world_size.y * world_size.x * sizeof(bool);
	movq	-8(%rbp), %rax	# this, tmp90
	movzwl	32(%rax), %eax	# this_8(D)->world_size.y, _1
	movswl	%ax, %edx	# _1, _2
# src/main.cc:411:         return ptr + world_size.y * world_size.x * sizeof(bool);
	movq	-8(%rbp), %rax	# this, tmp91
	movzwl	34(%rax), %eax	# this_8(D)->world_size.x, _3
	cwtl
# src/main.cc:411:         return ptr + world_size.y * world_size.x * sizeof(bool);
	imull	%edx, %eax	# _2, _5
# src/main.cc:411:         return ptr + world_size.y * world_size.x * sizeof(bool);
	movslq	%eax, %rdx	# _5, _6
# src/main.cc:411:         return ptr + world_size.y * world_size.x * sizeof(bool);
	movq	-16(%rbp), %rax	# ptr, tmp92
	addq	%rdx, %rax	# _6, _10
# src/main.cc:412:     }
	popq	%rbp	#
	.cfi_def_cfa 7, 8
	ret	
	.cfi_endproc
.LFE2874:
	.size	_ZN5World27world_storage_get_value_ptrEPh, .-_ZN5World27world_storage_get_value_ptrEPh
	.section	.rodata
.LC12:
	.string	"Cursor[y,x]: '"
.LC13:
	.string	","
.LC14:
	.string	"'; "
.LC15:
	.string	"Step size[y,x]: '"
.LC16:
	.string	"Refresh rate: '"
.LC17:
	.string	"'s; "
	.align 8
.LC18:
	.string	"Cell symbol[alive, dead, border]: '"
.LC19:
	.string	"Cells alive[world]: '"
	.align 8
.LC20:
	.string	"Default random infest cell count[view,world]: '"
.LC21:
	.string	"Run mode, generations: '"
	.section	.text._ZN5World10print_infoEv,"axG",@progbits,_ZN5World10print_infoEv,comdat
	.align 2
	.weak	_ZN5World10print_infoEv
	.type	_ZN5World10print_infoEv, @function
_ZN5World10print_infoEv:
.LFB2875:
	.cfi_startproc
	endbr64	
	pushq	%rbp	#
	.cfi_def_cfa_offset 16
	.cfi_offset 6, -16
	movq	%rsp, %rbp	#,
	.cfi_def_cfa_register 6
	subq	$32, %rsp	#,
	movq	%rdi, -24(%rbp)	# this, this
# src/main.cc:418:         const point_t cursor = get_pos_cursor_world();
	movq	-24(%rbp), %rax	# this, tmp130
	movq	%rax, %rdi	# tmp130,
	call	_ZN5World20get_pos_cursor_worldEv	#
	movl	%eax, -4(%rbp)	# tmp132, cursor
# src/main.cc:419:         std::cout << "Cursor[y,x]: '" << +cursor.y << "," << +cursor.x
	leaq	.LC12(%rip), %rax	#, tmp133
	movq	%rax, %rsi	# tmp133,
	leaq	_ZSt4cout(%rip), %rax	#, tmp134
	movq	%rax, %rdi	# tmp134,
	call	_ZStlsISt11char_traitsIcEERSt13basic_ostreamIcT_ES5_PKc@PLT	#
	movq	%rax, %rdx	#, _1
# src/main.cc:419:         std::cout << "Cursor[y,x]: '" << +cursor.y << "," << +cursor.x
	movzwl	-4(%rbp), %eax	# cursor.y, _2
# src/main.cc:419:         std::cout << "Cursor[y,x]: '" << +cursor.y << "," << +cursor.x
	cwtl
	movl	%eax, %esi	# _3,
	movq	%rdx, %rdi	# _1,
	call	_ZNSolsEi@PLT	#
	movq	%rax, %rdx	#, _4
	leaq	.LC13(%rip), %rax	#, tmp135
	movq	%rax, %rsi	# tmp135,
	movq	%rdx, %rdi	# _4,
	call	_ZStlsISt11char_traitsIcEERSt13basic_ostreamIcT_ES5_PKc@PLT	#
	movq	%rax, %rdx	#, _5
# src/main.cc:419:         std::cout << "Cursor[y,x]: '" << +cursor.y << "," << +cursor.x
	movzwl	-2(%rbp), %eax	# cursor.x, _6
# src/main.cc:420:                   << "'; ";
	cwtl
	movl	%eax, %esi	# _7,
	movq	%rdx, %rdi	# _5,
	call	_ZNSolsEi@PLT	#
	movq	%rax, %rdx	#, _8
	leaq	.LC14(%rip), %rax	#, tmp136
	movq	%rax, %rsi	# tmp136,
	movq	%rdx, %rdi	# _8,
	call	_ZStlsISt11char_traitsIcEERSt13basic_ostreamIcT_ES5_PKc@PLT	#
# src/main.cc:421:         std::cout << "Step size[y,x]: '" << +view_step_size.y << ","
	leaq	.LC15(%rip), %rax	#, tmp137
	movq	%rax, %rsi	# tmp137,
	leaq	_ZSt4cout(%rip), %rax	#, tmp138
	movq	%rax, %rdi	# tmp138,
	call	_ZStlsISt11char_traitsIcEERSt13basic_ostreamIcT_ES5_PKc@PLT	#
	movq	%rax, %rdx	#, _9
# src/main.cc:421:         std::cout << "Step size[y,x]: '" << +view_step_size.y << ","
	movq	-24(%rbp), %rax	# this, tmp139
	movzwl	60(%rax), %eax	# this_51(D)->view_step_size.y, _10
# src/main.cc:421:         std::cout << "Step size[y,x]: '" << +view_step_size.y << ","
	cwtl
	movl	%eax, %esi	# _11,
	movq	%rdx, %rdi	# _9,
	call	_ZNSolsEi@PLT	#
	movq	%rax, %rdx	#, _12
	leaq	.LC13(%rip), %rax	#, tmp140
	movq	%rax, %rsi	# tmp140,
	movq	%rdx, %rdi	# _12,
	call	_ZStlsISt11char_traitsIcEERSt13basic_ostreamIcT_ES5_PKc@PLT	#
	movq	%rax, %rdx	#, _13
# src/main.cc:422:                   << +view_step_size.x << "'; ";
	movq	-24(%rbp), %rax	# this, tmp141
	movzwl	62(%rax), %eax	# this_51(D)->view_step_size.x, _14
# src/main.cc:422:                   << +view_step_size.x << "'; ";
	cwtl
	movl	%eax, %esi	# _15,
	movq	%rdx, %rdi	# _13,
	call	_ZNSolsEi@PLT	#
	movq	%rax, %rdx	#, _16
	leaq	.LC14(%rip), %rax	#, tmp142
	movq	%rax, %rsi	# tmp142,
	movq	%rdx, %rdi	# _16,
	call	_ZStlsISt11char_traitsIcEERSt13basic_ostreamIcT_ES5_PKc@PLT	#
# src/main.cc:423:         std::cout << "Refresh rate: '" << +refresh_rate << "'s; ";
	leaq	.LC16(%rip), %rax	#, tmp143
	movq	%rax, %rsi	# tmp143,
	leaq	_ZSt4cout(%rip), %rax	#, tmp144
	movq	%rax, %rdi	# tmp144,
	call	_ZStlsISt11char_traitsIcEERSt13basic_ostreamIcT_ES5_PKc@PLT	#
	movq	%rax, %rdx	#, _17
# src/main.cc:423:         std::cout << "Refresh rate: '" << +refresh_rate << "'s; ";
	movq	-24(%rbp), %rax	# this, tmp145
	movzwl	12(%rax), %eax	# this_51(D)->refresh_rate, _18
# src/main.cc:423:         std::cout << "Refresh rate: '" << +refresh_rate << "'s; ";
	movzwl	%ax, %eax	# _18, _19
	movl	%eax, %esi	# _19,
	movq	%rdx, %rdi	# _17,
	call	_ZNSolsEi@PLT	#
	movq	%rax, %rdx	#, _20
	leaq	.LC17(%rip), %rax	#, tmp146
	movq	%rax, %rsi	# tmp146,
	movq	%rdx, %rdi	# _20,
	call	_ZStlsISt11char_traitsIcEERSt13basic_ostreamIcT_ES5_PKc@PLT	#
# src/main.cc:424:         std::cout << std::endl;
	movq	_ZSt4endlIcSt11char_traitsIcEERSt13basic_ostreamIT_T0_ES6_@GOTPCREL(%rip), %rax	#, tmp148
	movq	%rax, %rsi	# tmp147,
	leaq	_ZSt4cout(%rip), %rax	#, tmp149
	movq	%rax, %rdi	# tmp149,
	call	_ZNSolsEPFRSoS_E@PLT	#
# src/main.cc:428:                   << "'; ";
	leaq	.LC18(%rip), %rax	#, tmp150
	movq	%rax, %rsi	# tmp150,
	leaq	_ZSt4cout(%rip), %rax	#, tmp151
	movq	%rax, %rdi	# tmp151,
	call	_ZStlsISt11char_traitsIcEERSt13basic_ostreamIcT_ES5_PKc@PLT	#
	movq	%rax, %rdx	#, _21
# src/main.cc:427:                   << cell_aliv << "," << cell_dead << "," << cell_bord
	movq	-24(%rbp), %rax	# this, tmp152
	movzbl	(%rax), %eax	# this_51(D)->cell_aliv, _22
# src/main.cc:428:                   << "'; ";
	movsbl	%al, %eax	# _22, _23
	movl	%eax, %esi	# _23,
	movq	%rdx, %rdi	# _21,
	call	_ZStlsISt11char_traitsIcEERSt13basic_ostreamIcT_ES5_c@PLT	#
	movq	%rax, %rdx	#, _24
	leaq	.LC13(%rip), %rax	#, tmp153
	movq	%rax, %rsi	# tmp153,
	movq	%rdx, %rdi	# _24,
	call	_ZStlsISt11char_traitsIcEERSt13basic_ostreamIcT_ES5_PKc@PLT	#
	movq	%rax, %rdx	#, _25
# src/main.cc:427:                   << cell_aliv << "," << cell_dead << "," << cell_bord
	movq	-24(%rbp), %rax	# this, tmp154
	movzbl	1(%rax), %eax	# this_51(D)->cell_dead, _26
# src/main.cc:428:                   << "'; ";
	movsbl	%al, %eax	# _26, _27
	movl	%eax, %esi	# _27,
	movq	%rdx, %rdi	# _25,
	call	_ZStlsISt11char_traitsIcEERSt13basic_ostreamIcT_ES5_c@PLT	#
	movq	%rax, %rdx	#, _28
	leaq	.LC13(%rip), %rax	#, tmp155
	movq	%rax, %rsi	# tmp155,
	movq	%rdx, %rdi	# _28,
	call	_ZStlsISt11char_traitsIcEERSt13basic_ostreamIcT_ES5_PKc@PLT	#
	movq	%rax, %rdx	#, _29
# src/main.cc:427:                   << cell_aliv << "," << cell_dead << "," << cell_bord
	movq	-24(%rbp), %rax	# this, tmp156
	movzbl	2(%rax), %eax	# this_51(D)->cell_bord, _30
# src/main.cc:428:                   << "'; ";
	movsbl	%al, %eax	# _30, _31
	movl	%eax, %esi	# _31,
	movq	%rdx, %rdi	# _29,
	call	_ZStlsISt11char_traitsIcEERSt13basic_ostreamIcT_ES5_c@PLT	#
	movq	%rax, %rdx	#, _32
	leaq	.LC14(%rip), %rax	#, tmp157
	movq	%rax, %rsi	# tmp157,
	movq	%rdx, %rdi	# _32,
	call	_ZStlsISt11char_traitsIcEERSt13basic_ostreamIcT_ES5_PKc@PLT	#
# src/main.cc:429:         std::cout << "Cells alive[world]: '" << +world_alive_counter
	leaq	.LC19(%rip), %rax	#, tmp158
	movq	%rax, %rsi	# tmp158,
	leaq	_ZSt4cout(%rip), %rax	#, tmp159
	movq	%rax, %rdi	# tmp159,
	call	_ZStlsISt11char_traitsIcEERSt13basic_ostreamIcT_ES5_PKc@PLT	#
	movq	%rax, %rdx	#, _33
# src/main.cc:429:         std::cout << "Cells alive[world]: '" << +world_alive_counter
	movq	-24(%rbp), %rax	# this, tmp160
	movl	80(%rax), %eax	# this_51(D)->world_alive_counter, _34
	movl	%eax, %esi	# _34,
	movq	%rdx, %rdi	# _33,
	call	_ZNSolsEj@PLT	#
	movq	%rax, %rdx	#, _35
# src/main.cc:430:                   << "'; ";
	leaq	.LC14(%rip), %rax	#, tmp161
	movq	%rax, %rsi	# tmp161,
	movq	%rdx, %rdi	# _35,
	call	_ZStlsISt11char_traitsIcEERSt13basic_ostreamIcT_ES5_PKc@PLT	#
# src/main.cc:431:         std::cout << std::endl;
	movq	_ZSt4endlIcSt11char_traitsIcEERSt13basic_ostreamIT_T0_ES6_@GOTPCREL(%rip), %rax	#, tmp163
	movq	%rax, %rsi	# tmp162,
	leaq	_ZSt4cout(%rip), %rax	#, tmp164
	movq	%rax, %rdi	# tmp164,
	call	_ZNSolsEPFRSoS_E@PLT	#
# src/main.cc:432:         std::cout << "Default random infest cell count[view,world]: '"
	leaq	.LC20(%rip), %rax	#, tmp165
	movq	%rax, %rsi	# tmp165,
	leaq	_ZSt4cout(%rip), %rax	#, tmp166
	movq	%rax, %rdi	# tmp166,
	call	_ZStlsISt11char_traitsIcEERSt13basic_ostreamIcT_ES5_PKc@PLT	#
	movq	%rax, %rdx	#, _36
# src/main.cc:433:                   << +infest_cell_view << "," << +infest_cell_world
	movq	-24(%rbp), %rax	# this, tmp167
	movl	4(%rax), %eax	# this_51(D)->infest_cell_view, _37
	movl	%eax, %esi	# _37,
	movq	%rdx, %rdi	# _36,
	call	_ZNSolsEj@PLT	#
	movq	%rax, %rdx	#, _38
# src/main.cc:433:                   << +infest_cell_view << "," << +infest_cell_world
	leaq	.LC13(%rip), %rax	#, tmp168
	movq	%rax, %rsi	# tmp168,
	movq	%rdx, %rdi	# _38,
	call	_ZStlsISt11char_traitsIcEERSt13basic_ostreamIcT_ES5_PKc@PLT	#
	movq	%rax, %rdx	#, _39
# src/main.cc:433:                   << +infest_cell_view << "," << +infest_cell_world
	movq	-24(%rbp), %rax	# this, tmp169
	movl	8(%rax), %eax	# this_51(D)->infest_cell_world, _40
	movl	%eax, %esi	# _40,
	movq	%rdx, %rdi	# _39,
	call	_ZNSolsEj@PLT	#
	movq	%rax, %rdx	#, _41
# src/main.cc:434:                   << "'; ";
	leaq	.LC14(%rip), %rax	#, tmp170
	movq	%rax, %rsi	# tmp170,
	movq	%rdx, %rdi	# _41,
	call	_ZStlsISt11char_traitsIcEERSt13basic_ostreamIcT_ES5_PKc@PLT	#
# src/main.cc:435:         std::cout << "Run mode, generations: '" << +run_auto << ","
	leaq	.LC21(%rip), %rax	#, tmp171
	movq	%rax, %rsi	# tmp171,
	leaq	_ZSt4cout(%rip), %rax	#, tmp172
	movq	%rax, %rdi	# tmp172,
	call	_ZStlsISt11char_traitsIcEERSt13basic_ostreamIcT_ES5_PKc@PLT	#
	movq	%rax, %rdx	#, _42
# src/main.cc:435:         std::cout << "Run mode, generations: '" << +run_auto << ","
	movq	-24(%rbp), %rax	# this, tmp173
	movzbl	92(%rax), %eax	# this_51(D)->run_auto, _43
# src/main.cc:435:         std::cout << "Run mode, generations: '" << +run_auto << ","
	movzbl	%al, %eax	# _43, _44
	movl	%eax, %esi	# _44,
	movq	%rdx, %rdi	# _42,
	call	_ZNSolsEi@PLT	#
	movq	%rax, %rdx	#, _45
	leaq	.LC13(%rip), %rax	#, tmp174
	movq	%rax, %rsi	# tmp174,
	movq	%rdx, %rdi	# _45,
	call	_ZStlsISt11char_traitsIcEERSt13basic_ostreamIcT_ES5_PKc@PLT	#
	movq	%rax, %rdx	#, _46
# src/main.cc:436:                   << +generations << "'; ";
	movq	-24(%rbp), %rax	# this, tmp175
	movl	88(%rax), %eax	# this_51(D)->generations, _47
	movl	%eax, %esi	# _47,
	movq	%rdx, %rdi	# _46,
	call	_ZNSolsEj@PLT	#
	movq	%rax, %rdx	#, _48
# src/main.cc:436:                   << +generations << "'; ";
	leaq	.LC14(%rip), %rax	#, tmp176
	movq	%rax, %rsi	# tmp176,
	movq	%rdx, %rdi	# _48,
	call	_ZStlsISt11char_traitsIcEERSt13basic_ostreamIcT_ES5_PKc@PLT	#
# src/main.cc:437:     }
	nop	
	leave	
	.cfi_def_cfa 7, 8
	ret	
	.cfi_endproc
.LFE2875:
	.size	_ZN5World10print_infoEv, .-_ZN5World10print_infoEv
	.section	.text._ZN5World13set_cell_charERcc,"axG",@progbits,_ZN5World13set_cell_charERcc,comdat
	.align 2
	.weak	_ZN5World13set_cell_charERcc
	.type	_ZN5World13set_cell_charERcc, @function
_ZN5World13set_cell_charERcc:
.LFB2876:
	.cfi_startproc
	endbr64	
	pushq	%rbp	#
	.cfi_def_cfa_offset 16
	.cfi_offset 6, -16
	movq	%rsp, %rbp	#,
	.cfi_def_cfa_register 6
	subq	$32, %rsp	#,
	movq	%rdi, -8(%rbp)	# this, this
	movq	%rsi, -16(%rbp)	# cell, cell
	movl	%edx, %eax	# c, tmp88
	movb	%al, -20(%rbp)	# tmp89, c
# src/main.cc:445:         if (ascii_is_symbol(c) || c == ' ') {
	movzbl	-20(%rbp), %eax	# c, c.73_1
# src/main.cc:445:         if (ascii_is_symbol(c) || c == ' ') {
	movzbl	%al, %eax	# c.73_1, _2
	movl	%eax, %edi	# _2,
	call	_Z15ascii_is_symbolh	#
# src/main.cc:445:         if (ascii_is_symbol(c) || c == ' ') {
	testb	%al, %al	# _3
	jne	.L129	#,
# src/main.cc:445:         if (ascii_is_symbol(c) || c == ' ') {
	cmpb	$32, -20(%rbp)	#, c
	jne	.L130	#,
.L129:
# src/main.cc:445:         if (ascii_is_symbol(c) || c == ' ') {
	movl	$1, %eax	#, iftmp.72_6
	jmp	.L131	#
.L130:
# src/main.cc:445:         if (ascii_is_symbol(c) || c == ' ') {
	movl	$0, %eax	#, iftmp.72_6
.L131:
# src/main.cc:445:         if (ascii_is_symbol(c) || c == ' ') {
	testb	%al, %al	# iftmp.72_6
	je	.L133	#,
# src/main.cc:446:             cell = c;
	movq	-16(%rbp), %rax	# cell, tmp90
	movzbl	-20(%rbp), %edx	# c, tmp91
	movb	%dl, (%rax)	# tmp91, *cell_14(D)
# src/main.cc:447:             world_init();  // reinitialze world to replace characters.
	movq	-8(%rbp), %rax	# this, tmp92
	movq	%rax, %rdi	# tmp92,
	call	_ZN5World10world_initEv	#
# src/main.cc:448:             view->refresh_view();
	movq	-8(%rbp), %rax	# this, tmp93
	movq	72(%rax), %rax	# this_16(D)->view, _4
# src/main.cc:448:             view->refresh_view();
	movq	%rax, %rdi	# _4,
	call	_ZN4View12refresh_viewEv	#
# src/main.cc:449:             view->refresh_info();
	movq	-8(%rbp), %rax	# this, tmp94
	movq	72(%rax), %rax	# this_16(D)->view, _5
# src/main.cc:449:             view->refresh_info();
	movq	%rax, %rdi	# _5,
	call	_ZN4View12refresh_infoEv	#
.L133:
# src/main.cc:451:     }
	nop	
	leave	
	.cfi_def_cfa 7, 8
	ret	
	.cfi_endproc
.LFE2876:
	.size	_ZN5World13set_cell_charERcc, .-_ZN5World13set_cell_charERcc
	.section	.text._ZN5World14set_cursor_posE7POINT_T,"axG",@progbits,_ZN5World14set_cursor_posE7POINT_T,comdat
	.align 2
	.weak	_ZN5World14set_cursor_posE7POINT_T
	.type	_ZN5World14set_cursor_posE7POINT_T, @function
_ZN5World14set_cursor_posE7POINT_T:
.LFB2877:
	.cfi_startproc
	endbr64	
	pushq	%rbp	#
	.cfi_def_cfa_offset 16
	.cfi_offset 6, -16
	movq	%rsp, %rbp	#,
	.cfi_def_cfa_register 6
	subq	$16, %rsp	#,
	movq	%rdi, -8(%rbp)	# this, this
	movl	%esi, -12(%rbp)	# pos, pos
# src/main.cc:458:         pos.y = limit(pos.y, view_size.y - 2, 1);
	movq	-8(%rbp), %rax	# this, tmp101
	movzwl	56(%rax), %eax	# this_21(D)->view_size.y, _1
# src/main.cc:458:         pos.y = limit(pos.y, view_size.y - 2, 1);
	subl	$2, %eax	#, _3
# src/main.cc:458:         pos.y = limit(pos.y, view_size.y - 2, 1);
	movswl	%ax, %ecx	# _4, _5
# src/main.cc:458:         pos.y = limit(pos.y, view_size.y - 2, 1);
	movzwl	-12(%rbp), %eax	# pos.y, _6
# src/main.cc:458:         pos.y = limit(pos.y, view_size.y - 2, 1);
	cwtl
	movl	$1, %edx	#,
	movl	%ecx, %esi	# _5,
	movl	%eax, %edi	# _7,
	call	_Z5limitsss	#
# src/main.cc:458:         pos.y = limit(pos.y, view_size.y - 2, 1);
	movw	%ax, -12(%rbp)	# _8, pos.y
# src/main.cc:459:         pos.x = limit(pos.x, view_size.x - 2, 1);
	movq	-8(%rbp), %rax	# this, tmp102
	movzwl	58(%rax), %eax	# this_21(D)->view_size.x, _9
# src/main.cc:459:         pos.x = limit(pos.x, view_size.x - 2, 1);
	subl	$2, %eax	#, _11
# src/main.cc:459:         pos.x = limit(pos.x, view_size.x - 2, 1);
	movswl	%ax, %ecx	# _12, _13
# src/main.cc:459:         pos.x = limit(pos.x, view_size.x - 2, 1);
	movzwl	-10(%rbp), %eax	# pos.x, _14
# src/main.cc:459:         pos.x = limit(pos.x, view_size.x - 2, 1);
	cwtl
	movl	$1, %edx	#,
	movl	%ecx, %esi	# _13,
	movl	%eax, %edi	# _15,
	call	_Z5limitsss	#
# src/main.cc:459:         pos.x = limit(pos.x, view_size.x - 2, 1);
	movw	%ax, -10(%rbp)	# _16, pos.x
# src/main.cc:460:         view->set_user_cursor_pos(pos);
	movq	-8(%rbp), %rax	# this, tmp103
	movq	72(%rax), %rax	# this_21(D)->view, _17
# src/main.cc:460:         view->set_user_cursor_pos(pos);
	movl	-12(%rbp), %edx	# pos, tmp104
	movl	%edx, %esi	# tmp104,
	movq	%rax, %rdi	# _17,
	call	_ZN4View19set_user_cursor_posE7POINT_T	#
# src/main.cc:461:         view->refresh_info();
	movq	-8(%rbp), %rax	# this, tmp105
	movq	72(%rax), %rax	# this_21(D)->view, _18
# src/main.cc:461:         view->refresh_info();
	movq	%rax, %rdi	# _18,
	call	_ZN4View12refresh_infoEv	#
# src/main.cc:462:         view->refresh_view();
	movq	-8(%rbp), %rax	# this, tmp106
	movq	72(%rax), %rax	# this_21(D)->view, _19
# src/main.cc:462:         view->refresh_view();
	movq	%rax, %rdi	# _19,
	call	_ZN4View12refresh_viewEv	#
# src/main.cc:463:     }
	nop	
	leave	
	.cfi_def_cfa 7, 8
	ret	
	.cfi_endproc
.LFE2877:
	.size	_ZN5World14set_cursor_posE7POINT_T, .-_ZN5World14set_cursor_posE7POINT_T
	.section	.text._ZN5World9view_moveE7POINT_T,"axG",@progbits,_ZN5World9view_moveE7POINT_T,comdat
	.align 2
	.weak	_ZN5World9view_moveE7POINT_T
	.type	_ZN5World9view_moveE7POINT_T, @function
_ZN5World9view_moveE7POINT_T:
.LFB2878:
	.cfi_startproc
	endbr64	
	pushq	%rbp	#
	.cfi_def_cfa_offset 16
	.cfi_offset 6, -16
	movq	%rsp, %rbp	#,
	.cfi_def_cfa_register 6
	subq	$16, %rsp	#,
	movq	%rdi, -8(%rbp)	# this, this
	movl	%esi, -12(%rbp)	# p, p
# src/main.cc:470:         view_pos.y = limit(p.y, world_size.y - view_size.y, 0);
	movq	-8(%rbp), %rax	# this, tmp119
	movzwl	32(%rax), %eax	# this_38(D)->world_size.y, _1
	movl	%eax, %edx	# _1, _2
# src/main.cc:470:         view_pos.y = limit(p.y, world_size.y - view_size.y, 0);
	movq	-8(%rbp), %rax	# this, tmp120
	movzwl	56(%rax), %eax	# this_38(D)->view_size.y, _3
	movl	%eax, %ecx	# _3, _4
# src/main.cc:470:         view_pos.y = limit(p.y, world_size.y - view_size.y, 0);
	movl	%edx, %eax	# _2, _2
	subl	%ecx, %eax	# _4, _2
# src/main.cc:470:         view_pos.y = limit(p.y, world_size.y - view_size.y, 0);
	movswl	%ax, %ecx	# _6, _7
# src/main.cc:470:         view_pos.y = limit(p.y, world_size.y - view_size.y, 0);
	movzwl	-12(%rbp), %eax	# p.y, _8
# src/main.cc:470:         view_pos.y = limit(p.y, world_size.y - view_size.y, 0);
	cwtl
	movl	$0, %edx	#,
	movl	%ecx, %esi	# _7,
	movl	%eax, %edi	# _9,
	call	_Z5limitsss	#
# src/main.cc:470:         view_pos.y = limit(p.y, world_size.y - view_size.y, 0);
	movq	-8(%rbp), %rdx	# this, tmp121
	movw	%ax, 64(%rdx)	# _10, this_38(D)->view_pos.y
# src/main.cc:471:         view_pos.x = limit(p.x, world_size.x - view_size.x, 0);
	movq	-8(%rbp), %rax	# this, tmp122
	movzwl	34(%rax), %eax	# this_38(D)->world_size.x, _11
	movl	%eax, %edx	# _11, _12
# src/main.cc:471:         view_pos.x = limit(p.x, world_size.x - view_size.x, 0);
	movq	-8(%rbp), %rax	# this, tmp123
	movzwl	58(%rax), %eax	# this_38(D)->view_size.x, _13
	movl	%eax, %ecx	# _13, _14
# src/main.cc:471:         view_pos.x = limit(p.x, world_size.x - view_size.x, 0);
	movl	%edx, %eax	# _12, _12
	subl	%ecx, %eax	# _14, _12
# src/main.cc:471:         view_pos.x = limit(p.x, world_size.x - view_size.x, 0);
	movswl	%ax, %ecx	# _16, _17
# src/main.cc:471:         view_pos.x = limit(p.x, world_size.x - view_size.x, 0);
	movzwl	-10(%rbp), %eax	# p.x, _18
# src/main.cc:471:         view_pos.x = limit(p.x, world_size.x - view_size.x, 0);
	cwtl
	movl	$0, %edx	#,
	movl	%ecx, %esi	# _17,
	movl	%eax, %edi	# _19,
	call	_Z5limitsss	#
# src/main.cc:471:         view_pos.x = limit(p.x, world_size.x - view_size.x, 0);
	movq	-8(%rbp), %rdx	# this, tmp124
	movw	%ax, 66(%rdx)	# _20, this_38(D)->view_pos.x
# src/main.cc:472:         view->set_view_parameters(
	movq	-8(%rbp), %rax	# this, tmp125
	movq	72(%rax), %rax	# this_38(D)->view, _21
# src/main.cc:474:             view_size, world_size.x);
	movq	-8(%rbp), %rdx	# this, tmp126
	movzwl	34(%rdx), %edx	# this_38(D)->world_size.x, _22
# src/main.cc:472:         view->set_view_parameters(
	movswl	%dx, %ecx	# _22, _23
# src/main.cc:473:             &world->value[view_pos.y * world_size.x + view_pos.x],
	movq	-8(%rbp), %rdx	# this, tmp127
	movq	24(%rdx), %rdx	# this_38(D)->world, _24
# src/main.cc:473:             &world->value[view_pos.y * world_size.x + view_pos.x],
	movq	8(%rdx), %rdi	# _24->value, _25
# src/main.cc:473:             &world->value[view_pos.y * world_size.x + view_pos.x],
	movq	-8(%rbp), %rdx	# this, tmp128
	movzwl	64(%rdx), %edx	# this_38(D)->view_pos.y, _26
	movswl	%dx, %esi	# _26, _27
# src/main.cc:473:             &world->value[view_pos.y * world_size.x + view_pos.x],
	movq	-8(%rbp), %rdx	# this, tmp129
	movzwl	34(%rdx), %edx	# this_38(D)->world_size.x, _28
	movswl	%dx, %edx	# _28, _29
# src/main.cc:473:             &world->value[view_pos.y * world_size.x + view_pos.x],
	imull	%edx, %esi	# _29, _30
# src/main.cc:473:             &world->value[view_pos.y * world_size.x + view_pos.x],
	movq	-8(%rbp), %rdx	# this, tmp130
	movzwl	66(%rdx), %edx	# this_38(D)->view_pos.x, _31
	movswl	%dx, %edx	# _31, _32
# src/main.cc:473:             &world->value[view_pos.y * world_size.x + view_pos.x],
	addl	%esi, %edx	# _30, _33
	movslq	%edx, %rdx	# _33, _34
# src/main.cc:472:         view->set_view_parameters(
	leaq	(%rdi,%rdx), %rsi	#, _35
	movq	-8(%rbp), %rdx	# this, tmp131
	movl	56(%rdx), %edx	# this_38(D)->view_size, tmp132
	movq	%rax, %rdi	# _21,
	call	_ZN4View19set_view_parametersEPh7POINT_Tj	#
# src/main.cc:475:         set_cursor_pos(view->get_pos_cursor_user());
	movq	-8(%rbp), %rax	# this, tmp133
	movq	72(%rax), %rax	# this_38(D)->view, _36
# src/main.cc:475:         set_cursor_pos(view->get_pos_cursor_user());
	movq	%rax, %rdi	# _36,
	call	_ZN4View19get_pos_cursor_userEv	#
	movl	%eax, %edx	#, D.103358
	movq	-8(%rbp), %rax	# this, tmp134
	movl	%edx, %esi	# D.103358,
	movq	%rax, %rdi	# tmp134,
	call	_ZN5World14set_cursor_posE7POINT_T	#
# src/main.cc:476:     }
	nop	
	leave	
	.cfi_def_cfa 7, 8
	ret	
	.cfi_endproc
.LFE2878:
	.size	_ZN5World9view_moveE7POINT_T, .-_ZN5World9view_moveE7POINT_T
	.section	.text._ZN5World14world_set_cellEPhb,"axG",@progbits,_ZN5World14world_set_cellEPhb,comdat
	.align 2
	.weak	_ZN5World14world_set_cellEPhb
	.type	_ZN5World14world_set_cellEPhb, @function
_ZN5World14world_set_cellEPhb:
.LFB2879:
	.cfi_startproc
	endbr64	
	pushq	%rbp	#
	.cfi_def_cfa_offset 16
	.cfi_offset 6, -16
	movq	%rsp, %rbp	#,
	.cfi_def_cfa_register 6
	pushq	%rbx	#
	subq	$40, %rsp	#,
	.cfi_offset 3, -24
	movq	%rdi, -24(%rbp)	# this, this
	movq	%rsi, -32(%rbp)	# cell_ptr, cell_ptr
	movl	%edx, %eax	# alive, tmp90
	movb	%al, -36(%rbp)	# tmp91, alive
# src/main.cc:484:         world_alive_counter += (alive) ? 1 : -1;
	movq	-24(%rbp), %rax	# this, tmp92
	movl	80(%rax), %eax	# this_10(D)->world_alive_counter, _1
# src/main.cc:484:         world_alive_counter += (alive) ? 1 : -1;
	cmpb	$0, -36(%rbp)	#, alive
	je	.L137	#,
# src/main.cc:484:         world_alive_counter += (alive) ? 1 : -1;
	movl	$1, %edx	#, iftmp.16_7
	jmp	.L138	#
.L137:
# src/main.cc:484:         world_alive_counter += (alive) ? 1 : -1;
	movl	$-1, %edx	#, iftmp.16_7
.L138:
# src/main.cc:484:         world_alive_counter += (alive) ? 1 : -1;
	addl	%eax, %edx	# _1, _2
	movq	-24(%rbp), %rax	# this, tmp93
	movl	%edx, 80(%rax)	# _2, this_10(D)->world_alive_counter
# src/main.cc:485:         *cell_ptr = alive;
	movzbl	-36(%rbp), %edx	# alive, _3
# src/main.cc:485:         *cell_ptr = alive;
	movq	-32(%rbp), %rax	# cell_ptr, tmp94
	movb	%dl, (%rax)	# _3, *cell_ptr_15(D)
# src/main.cc:487:             (alive) ? cell_aliv : cell_dead;
	cmpb	$0, -36(%rbp)	#, alive
	je	.L139	#,
# src/main.cc:487:             (alive) ? cell_aliv : cell_dead;
	movq	-24(%rbp), %rax	# this, tmp95
	movzbl	(%rax), %eax	# this_10(D)->cell_aliv, _4
# src/main.cc:487:             (alive) ? cell_aliv : cell_dead;
	movl	%eax, %ebx	# _4, iftmp.17_8
	jmp	.L140	#
.L139:
# src/main.cc:487:             (alive) ? cell_aliv : cell_dead;
	movq	-24(%rbp), %rax	# this, tmp96
	movzbl	1(%rax), %eax	# this_10(D)->cell_dead, _5
# src/main.cc:487:             (alive) ? cell_aliv : cell_dead;
	movl	%eax, %ebx	# _5, iftmp.17_8
.L140:
# src/main.cc:486:         *world_storage_get_value_ptr(cell_ptr) =
	movq	-32(%rbp), %rdx	# cell_ptr, tmp97
	movq	-24(%rbp), %rax	# this, tmp98
	movq	%rdx, %rsi	# tmp97,
	movq	%rax, %rdi	# tmp98,
	call	_ZN5World27world_storage_get_value_ptrEPh	#
# src/main.cc:486:         *world_storage_get_value_ptr(cell_ptr) =
	movb	%bl, (%rax)	# iftmp.17_8, *_6
# src/main.cc:488:     }
	nop	
	movq	-8(%rbp), %rbx	#,
	leave	
	.cfi_def_cfa 7, 8
	ret	
	.cfi_endproc
.LFE2879:
	.size	_ZN5World14world_set_cellEPhb, .-_ZN5World14world_set_cellEPhb
	.section	.text._ZN5World10world_initEv,"axG",@progbits,_ZN5World10world_initEv,comdat
	.align 2
	.weak	_ZN5World10world_initEv
	.type	_ZN5World10world_initEv, @function
_ZN5World10world_initEv:
.LFB2880:
	.cfi_startproc
	endbr64	
	pushq	%rbp	#
	.cfi_def_cfa_offset 16
	.cfi_offset 6, -16
	movq	%rsp, %rbp	#,
	.cfi_def_cfa_register 6
	subq	$64, %rsp	#,
	movq	%rdi, -56(%rbp)	# this, this
# src/main.cc:493:     void world_init(void) {
	movq	%fs:40, %rax	# MEM[(<address-space-1> long unsigned int *)40B], tmp134
	movq	%rax, -8(%rbp)	# tmp134, D.106010
	xorl	%eax, %eax	# tmp134
# src/main.cc:494:         const std::lock_guard<std::mutex> lock(mutex_world);
	movq	-56(%rbp), %rax	# this, tmp115
	leaq	96(%rax), %rdx	#, _1
# src/main.cc:494:         const std::lock_guard<std::mutex> lock(mutex_world);
	leaq	-32(%rbp), %rax	#, tmp116
	movq	%rdx, %rsi	# _1,
	movq	%rax, %rdi	# tmp116,
	call	_ZNSt10lock_guardISt5mutexEC1ERS0_	#
# src/main.cc:496:         uint8_t *cell_ptr = &world->alive[0];
	movq	-56(%rbp), %rax	# this, tmp117
	movq	24(%rax), %rax	# this_41(D)->world, _2
# src/main.cc:496:         uint8_t *cell_ptr = &world->alive[0];
	movq	(%rax), %rax	# _2->alive, tmp118
	movq	%rax, -24(%rbp)	# tmp118, cell_ptr
# src/main.cc:498:         for (i.y = 0; i.y < world_size.y; i.y++) {
	movw	$0, -36(%rbp)	#, i.y
# src/main.cc:498:         for (i.y = 0; i.y < world_size.y; i.y++) {
	jmp	.L142	#
.L149:
# src/main.cc:499:             for (i.x = 0; i.x < world_size.x; i.x++) {
	movw	$0, -34(%rbp)	#, i.x
# src/main.cc:499:             for (i.x = 0; i.x < world_size.x; i.x++) {
	jmp	.L143	#
.L148:
# src/main.cc:501:                     world_storage_get_value_ptr(cell_ptr);
	movq	-24(%rbp), %rdx	# cell_ptr, tmp119
	movq	-56(%rbp), %rax	# this, tmp120
	movq	%rdx, %rsi	# tmp119,
	movq	%rax, %rdi	# tmp120,
	call	_ZN5World27world_storage_get_value_ptrEPh	#
	movq	%rax, -16(%rbp)	# tmp121, value_ptr
# src/main.cc:502:                 if (i.y == 0 || i.x == 0 || i.y == world_size.y - 1 ||
	movzwl	-36(%rbp), %eax	# i.y, _3
# src/main.cc:502:                 if (i.y == 0 || i.x == 0 || i.y == world_size.y - 1 ||
	testw	%ax, %ax	# _3
	je	.L144	#,
# src/main.cc:502:                 if (i.y == 0 || i.x == 0 || i.y == world_size.y - 1 ||
	movzwl	-34(%rbp), %eax	# i.x, _4
# src/main.cc:502:                 if (i.y == 0 || i.x == 0 || i.y == world_size.y - 1 ||
	testw	%ax, %ax	# _4
	je	.L144	#,
# src/main.cc:502:                 if (i.y == 0 || i.x == 0 || i.y == world_size.y - 1 ||
	movzwl	-36(%rbp), %eax	# i.y, _5
	movswl	%ax, %edx	# _5, _6
# src/main.cc:502:                 if (i.y == 0 || i.x == 0 || i.y == world_size.y - 1 ||
	movq	-56(%rbp), %rax	# this, tmp122
	movzwl	32(%rax), %eax	# this_41(D)->world_size.y, _7
	cwtl
# src/main.cc:502:                 if (i.y == 0 || i.x == 0 || i.y == world_size.y - 1 ||
	subl	$1, %eax	#, _9
# src/main.cc:502:                 if (i.y == 0 || i.x == 0 || i.y == world_size.y - 1 ||
	cmpl	%eax, %edx	# _9, _6
	je	.L144	#,
# src/main.cc:503:                     i.x == world_size.x - 1) {
	movzwl	-34(%rbp), %eax	# i.x, _10
	movswl	%ax, %edx	# _10, _11
# src/main.cc:503:                     i.x == world_size.x - 1) {
	movq	-56(%rbp), %rax	# this, tmp123
	movzwl	34(%rax), %eax	# this_41(D)->world_size.x, _12
	cwtl
# src/main.cc:503:                     i.x == world_size.x - 1) {
	subl	$1, %eax	#, _14
# src/main.cc:502:                 if (i.y == 0 || i.x == 0 || i.y == world_size.y - 1 ||
	cmpl	%eax, %edx	# _14, _11
	jne	.L145	#,
.L144:
# src/main.cc:504:                     *value_ptr = cell_bord;
	movq	-56(%rbp), %rax	# this, tmp124
	movzbl	2(%rax), %eax	# this_41(D)->cell_bord, _15
	movl	%eax, %edx	# _15, _16
# src/main.cc:504:                     *value_ptr = cell_bord;
	movq	-16(%rbp), %rax	# value_ptr, tmp125
	movb	%dl, (%rax)	# _16, *value_ptr_52
	jmp	.L146	#
.L145:
# src/main.cc:505:                 } else if (!*cell_ptr) {
	movq	-24(%rbp), %rax	# cell_ptr, tmp126
	movzbl	(%rax), %eax	# *cell_ptr_36, _17
# src/main.cc:505:                 } else if (!*cell_ptr) {
	testb	%al, %al	# _17
	jne	.L147	#,
# src/main.cc:506:                     *value_ptr = cell_dead;
	movq	-56(%rbp), %rax	# this, tmp127
	movzbl	1(%rax), %eax	# this_41(D)->cell_dead, _18
	movl	%eax, %edx	# _18, _19
# src/main.cc:506:                     *value_ptr = cell_dead;
	movq	-16(%rbp), %rax	# value_ptr, tmp128
	movb	%dl, (%rax)	# _19, *value_ptr_52
	jmp	.L146	#
.L147:
# src/main.cc:508:                     *value_ptr = cell_aliv;
	movq	-56(%rbp), %rax	# this, tmp129
	movzbl	(%rax), %eax	# this_41(D)->cell_aliv, _20
	movl	%eax, %edx	# _20, _21
# src/main.cc:508:                     *value_ptr = cell_aliv;
	movq	-16(%rbp), %rax	# value_ptr, tmp130
	movb	%dl, (%rax)	# _21, *value_ptr_52
.L146:
# src/main.cc:510:                 cell_ptr++;
	addq	$1, -24(%rbp)	#, cell_ptr
# src/main.cc:499:             for (i.x = 0; i.x < world_size.x; i.x++) {
	movzwl	-34(%rbp), %eax	# i.x, _22
# src/main.cc:499:             for (i.x = 0; i.x < world_size.x; i.x++) {
	addl	$1, %eax	#, _25
	movw	%ax, -34(%rbp)	# _26, i.x
.L143:
# src/main.cc:499:             for (i.x = 0; i.x < world_size.x; i.x++) {
	movzwl	-34(%rbp), %edx	# i.x, _27
# src/main.cc:499:             for (i.x = 0; i.x < world_size.x; i.x++) {
	movq	-56(%rbp), %rax	# this, tmp131
	movzwl	34(%rax), %eax	# this_41(D)->world_size.x, _28
# src/main.cc:499:             for (i.x = 0; i.x < world_size.x; i.x++) {
	cmpw	%ax, %dx	# _28, _27
	jl	.L148	#,
# src/main.cc:498:         for (i.y = 0; i.y < world_size.y; i.y++) {
	movzwl	-36(%rbp), %eax	# i.y, _29
# src/main.cc:498:         for (i.y = 0; i.y < world_size.y; i.y++) {
	addl	$1, %eax	#, _32
	movw	%ax, -36(%rbp)	# _33, i.y
.L142:
# src/main.cc:498:         for (i.y = 0; i.y < world_size.y; i.y++) {
	movzwl	-36(%rbp), %edx	# i.y, _34
# src/main.cc:498:         for (i.y = 0; i.y < world_size.y; i.y++) {
	movq	-56(%rbp), %rax	# this, tmp132
	movzwl	32(%rax), %eax	# this_41(D)->world_size.y, _35
# src/main.cc:498:         for (i.y = 0; i.y < world_size.y; i.y++) {
	cmpw	%ax, %dx	# _35, _34
	jl	.L149	#,
# src/main.cc:513:     }
	leaq	-32(%rbp), %rax	#, tmp133
	movq	%rax, %rdi	# tmp133,
	call	_ZNSt10lock_guardISt5mutexED1Ev	#
	movq	-8(%rbp), %rax	# D.106010, tmp135
	subq	%fs:40, %rax	# MEM[(<address-space-1> long unsigned int *)40B], tmp135
	je	.L150	#,
	call	__stack_chk_fail@PLT	#
.L150:
	leave	
	.cfi_def_cfa 7, 8
	ret	
	.cfi_endproc
.LFE2880:
	.size	_ZN5World10world_initEv, .-_ZN5World10world_initEv
	.section	.text._ZN5World12events_clearEv,"axG",@progbits,_ZN5World12events_clearEv,comdat
	.align 2
	.weak	_ZN5World12events_clearEv
	.type	_ZN5World12events_clearEv, @function
_ZN5World12events_clearEv:
.LFB2881:
	.cfi_startproc
	endbr64	
	pushq	%rbp	#
	.cfi_def_cfa_offset 16
	.cfi_offset 6, -16
	movq	%rsp, %rbp	#,
	.cfi_def_cfa_register 6
	movq	%rdi, -8(%rbp)	# this, this
# src/main.cc:518:     inline void events_clear(void) { event_current = events; }
	movq	-8(%rbp), %rax	# this, tmp83
	movq	40(%rax), %rdx	# this_3(D)->events, _1
# src/main.cc:518:     inline void events_clear(void) { event_current = events; }
	movq	-8(%rbp), %rax	# this, tmp84
	movq	%rdx, 48(%rax)	# _1, this_3(D)->event_current
# src/main.cc:518:     inline void events_clear(void) { event_current = events; }
	nop	
	popq	%rbp	#
	.cfi_def_cfa 7, 8
	ret	
	.cfi_endproc
.LFE2881:
	.size	_ZN5World12events_clearEv, .-_ZN5World12events_clearEv
	.section	.text._ZN5World9event_addEPh,"axG",@progbits,_ZN5World9event_addEPh,comdat
	.align 2
	.weak	_ZN5World9event_addEPh
	.type	_ZN5World9event_addEPh, @function
_ZN5World9event_addEPh:
.LFB2882:
	.cfi_startproc
	endbr64	
	pushq	%rbp	#
	.cfi_def_cfa_offset 16
	.cfi_offset 6, -16
	movq	%rsp, %rbp	#,
	.cfi_def_cfa_register 6
	movq	%rdi, -8(%rbp)	# this, this
	movq	%rsi, -16(%rbp)	# e, e
# src/main.cc:525:         event_current++;
	movq	-8(%rbp), %rax	# this, tmp85
	movq	48(%rax), %rax	# this_5(D)->event_current, _1
# src/main.cc:525:         event_current++;
	leaq	8(%rax), %rdx	#, _2
	movq	-8(%rbp), %rax	# this, tmp86
	movq	%rdx, 48(%rax)	# _2, this_5(D)->event_current
# src/main.cc:526:         *event_current = e;
	movq	-8(%rbp), %rax	# this, tmp87
	movq	48(%rax), %rax	# this_5(D)->event_current, _3
# src/main.cc:526:         *event_current = e;
	movq	-16(%rbp), %rdx	# e, tmp88
	movq	%rdx, (%rax)	# tmp88, *_3
# src/main.cc:527:     }
	nop	
	popq	%rbp	#
	.cfi_def_cfa 7, 8
	ret	
	.cfi_endproc
.LFE2882:
	.size	_ZN5World9event_addEPh, .-_ZN5World9event_addEPh
	.section	.text._ZN5World14events_processEv,"axG",@progbits,_ZN5World14events_processEv,comdat
	.align 2
	.weak	_ZN5World14events_processEv
	.type	_ZN5World14events_processEv, @function
_ZN5World14events_processEv:
.LFB2883:
	.cfi_startproc
	endbr64	
	pushq	%rbp	#
	.cfi_def_cfa_offset 16
	.cfi_offset 6, -16
	movq	%rsp, %rbp	#,
	.cfi_def_cfa_register 6
	subq	$32, %rsp	#,
	movq	%rdi, -24(%rbp)	# this, this
# src/main.cc:532:     void events_process(void) {
	movq	%fs:40, %rax	# MEM[(<address-space-1> long unsigned int *)40B], tmp104
	movq	%rax, -8(%rbp)	# tmp104, D.106011
	xorl	%eax, %eax	# tmp104
# src/main.cc:533:         const std::lock_guard<std::mutex> lock(mutex_world);
	movq	-24(%rbp), %rax	# this, tmp94
	leaq	96(%rax), %rdx	#, _1
# src/main.cc:533:         const std::lock_guard<std::mutex> lock(mutex_world);
	leaq	-16(%rbp), %rax	#, tmp95
	movq	%rdx, %rsi	# _1,
	movq	%rax, %rdi	# tmp95,
	call	_ZNSt10lock_guardISt5mutexEC1ERS0_	#
# src/main.cc:534:         while (event_current != events) {
	jmp	.L154	#
.L155:
# src/main.cc:535:             world_set_cell(*event_current, !**event_current);
	movq	-24(%rbp), %rax	# this, tmp96
	movq	48(%rax), %rax	# this_14(D)->event_current, _2
# src/main.cc:535:             world_set_cell(*event_current, !**event_current);
	movq	(%rax), %rax	# *_2, _3
# src/main.cc:535:             world_set_cell(*event_current, !**event_current);
	movzbl	(%rax), %eax	# *_3, _4
# src/main.cc:535:             world_set_cell(*event_current, !**event_current);
	testb	%al, %al	# _4
	sete	%al	#, _5
	movzbl	%al, %edx	# _5, _6
# src/main.cc:535:             world_set_cell(*event_current, !**event_current);
	movq	-24(%rbp), %rax	# this, tmp97
	movq	48(%rax), %rax	# this_14(D)->event_current, _7
# src/main.cc:535:             world_set_cell(*event_current, !**event_current);
	movq	(%rax), %rcx	# *_7, _8
	movq	-24(%rbp), %rax	# this, tmp98
	movq	%rcx, %rsi	# _8,
	movq	%rax, %rdi	# tmp98,
	call	_ZN5World14world_set_cellEPhb	#
# src/main.cc:536:             event_current--;
	movq	-24(%rbp), %rax	# this, tmp99
	movq	48(%rax), %rax	# this_14(D)->event_current, _9
# src/main.cc:536:             event_current--;
	leaq	-8(%rax), %rdx	#, _10
	movq	-24(%rbp), %rax	# this, tmp100
	movq	%rdx, 48(%rax)	# _10, this_14(D)->event_current
.L154:
# src/main.cc:534:         while (event_current != events) {
	movq	-24(%rbp), %rax	# this, tmp101
	movq	48(%rax), %rdx	# this_14(D)->event_current, _11
# src/main.cc:534:         while (event_current != events) {
	movq	-24(%rbp), %rax	# this, tmp102
	movq	40(%rax), %rax	# this_14(D)->events, _12
# src/main.cc:534:         while (event_current != events) {
	cmpq	%rax, %rdx	# _12, _11
	jne	.L155	#,
# src/main.cc:538:     }
	leaq	-16(%rbp), %rax	#, tmp103
	movq	%rax, %rdi	# tmp103,
	call	_ZNSt10lock_guardISt5mutexED1Ev	#
	movq	-8(%rbp), %rax	# D.106011, tmp105
	subq	%fs:40, %rax	# MEM[(<address-space-1> long unsigned int *)40B], tmp105
	je	.L156	#,
	call	__stack_chk_fail@PLT	#
.L156:
	leave	
	.cfi_def_cfa 7, 8
	ret	
	.cfi_endproc
.LFE2883:
	.size	_ZN5World14events_processEv, .-_ZN5World14events_processEv
	.weak	_ZZN5World20world_validate_cellsEvE7limit_y
	.section	.bss._ZZN5World20world_validate_cellsEvE7limit_y,"awG",@nobits,_ZZN5World20world_validate_cellsEvE7limit_y,comdat
	.align 2
	.type	_ZZN5World20world_validate_cellsEvE7limit_y, @gnu_unique_object
	.size	_ZZN5World20world_validate_cellsEvE7limit_y, 2
_ZZN5World20world_validate_cellsEvE7limit_y:
	.zero	2
	.weak	_ZGVZN5World20world_validate_cellsEvE7limit_y
	.section	.bss._ZGVZN5World20world_validate_cellsEvE7limit_y,"awG",@nobits,_ZGVZN5World20world_validate_cellsEvE7limit_y,comdat
	.align 8
	.type	_ZGVZN5World20world_validate_cellsEvE7limit_y, @gnu_unique_object
	.size	_ZGVZN5World20world_validate_cellsEvE7limit_y, 8
_ZGVZN5World20world_validate_cellsEvE7limit_y:
	.zero	8
	.weak	_ZZN5World20world_validate_cellsEvE7limit_x
	.section	.bss._ZZN5World20world_validate_cellsEvE7limit_x,"awG",@nobits,_ZZN5World20world_validate_cellsEvE7limit_x,comdat
	.align 2
	.type	_ZZN5World20world_validate_cellsEvE7limit_x, @gnu_unique_object
	.size	_ZZN5World20world_validate_cellsEvE7limit_x, 2
_ZZN5World20world_validate_cellsEvE7limit_x:
	.zero	2
	.weak	_ZGVZN5World20world_validate_cellsEvE7limit_x
	.section	.bss._ZGVZN5World20world_validate_cellsEvE7limit_x,"awG",@nobits,_ZGVZN5World20world_validate_cellsEvE7limit_x,comdat
	.align 8
	.type	_ZGVZN5World20world_validate_cellsEvE7limit_x, @gnu_unique_object
	.size	_ZGVZN5World20world_validate_cellsEvE7limit_x, 8
_ZGVZN5World20world_validate_cellsEvE7limit_x:
	.zero	8
	.section	.text._ZN5World20world_validate_cellsEv,"axG",@progbits,_ZN5World20world_validate_cellsEv,comdat
	.align 2
	.weak	_ZN5World20world_validate_cellsEv
	.type	_ZN5World20world_validate_cellsEv, @function
_ZN5World20world_validate_cellsEv:
.LFB2884:
	.cfi_startproc
	endbr64	
	pushq	%rbp	#
	.cfi_def_cfa_offset 16
	.cfi_offset 6, -16
	movq	%rsp, %rbp	#,
	.cfi_def_cfa_register 6
	subq	$48, %rsp	#,
	movq	%rdi, -40(%rbp)	# this, this
# src/main.cc:543:     void world_validate_cells(void) {
	movq	%fs:40, %rax	# MEM[(<address-space-1> long unsigned int *)40B], tmp185
	movq	%rax, -8(%rbp)	# tmp185, D.106012
	xorl	%eax, %eax	# tmp185
# src/main.cc:544:         const std::lock_guard<std::mutex> lock(mutex_world);
	movq	-40(%rbp), %rax	# this, tmp149
	leaq	96(%rax), %rdx	#, _1
# src/main.cc:544:         const std::lock_guard<std::mutex> lock(mutex_world);
	leaq	-24(%rbp), %rax	#, tmp150
	movq	%rdx, %rsi	# _1,
	movq	%rax, %rdi	# tmp150,
	call	_ZNSt10lock_guardISt5mutexEC1ERS0_	#
# src/main.cc:545:         static const uint16_t limit_y = world_size.y - 2;
	movzbl	_ZGVZN5World20world_validate_cellsEvE7limit_y(%rip), %eax	#, _2
	testb	%al, %al	# _2
	sete	%al	#, retval.101_73
	testb	%al, %al	# retval.101_73
	je	.L158	#,
# src/main.cc:545:         static const uint16_t limit_y = world_size.y - 2;
	leaq	_ZGVZN5World20world_validate_cellsEvE7limit_y(%rip), %rax	#, tmp151
	movq	%rax, %rdi	# tmp151,
	call	__cxa_guard_acquire@PLT	#
	testl	%eax, %eax	# _3
	setne	%al	#, retval.102_75
	testb	%al, %al	# retval.102_75
	je	.L158	#,
# src/main.cc:545:         static const uint16_t limit_y = world_size.y - 2;
	movq	-40(%rbp), %rax	# this, tmp152
	movzwl	32(%rax), %eax	# this_69(D)->world_size.y, _4
# src/main.cc:545:         static const uint16_t limit_y = world_size.y - 2;
	subl	$2, %eax	#, _6
# src/main.cc:545:         static const uint16_t limit_y = world_size.y - 2;
	movw	%ax, _ZZN5World20world_validate_cellsEvE7limit_y(%rip)	# _6, limit_y
	leaq	_ZGVZN5World20world_validate_cellsEvE7limit_y(%rip), %rax	#, tmp153
	movq	%rax, %rdi	# tmp153,
	call	__cxa_guard_release@PLT	#
.L158:
# src/main.cc:546:         static const uint16_t limit_x = world_size.x - 2;
	movzbl	_ZGVZN5World20world_validate_cellsEvE7limit_x(%rip), %eax	#, _7
	testb	%al, %al	# _7
	sete	%al	#, retval.103_81
	testb	%al, %al	# retval.103_81
	je	.L159	#,
# src/main.cc:546:         static const uint16_t limit_x = world_size.x - 2;
	leaq	_ZGVZN5World20world_validate_cellsEvE7limit_x(%rip), %rax	#, tmp154
	movq	%rax, %rdi	# tmp154,
	call	__cxa_guard_acquire@PLT	#
	testl	%eax, %eax	# _8
	setne	%al	#, retval.104_83
	testb	%al, %al	# retval.104_83
	je	.L159	#,
# src/main.cc:546:         static const uint16_t limit_x = world_size.x - 2;
	movq	-40(%rbp), %rax	# this, tmp155
	movzwl	34(%rax), %eax	# this_69(D)->world_size.x, _9
# src/main.cc:546:         static const uint16_t limit_x = world_size.x - 2;
	subl	$2, %eax	#, _11
# src/main.cc:546:         static const uint16_t limit_x = world_size.x - 2;
	movw	%ax, _ZZN5World20world_validate_cellsEvE7limit_x(%rip)	# _11, limit_x
	leaq	_ZGVZN5World20world_validate_cellsEvE7limit_x(%rip), %rax	#, tmp156
	movq	%rax, %rdi	# tmp156,
	call	__cxa_guard_release@PLT	#
.L159:
# src/main.cc:547:         uint8_t *cell_ptr = &world->alive[1 * world_size.x + 1];
	movq	-40(%rbp), %rax	# this, tmp157
	movq	24(%rax), %rax	# this_69(D)->world, _12
# src/main.cc:547:         uint8_t *cell_ptr = &world->alive[1 * world_size.x + 1];
	movq	(%rax), %rdx	# _12->alive, _13
# src/main.cc:547:         uint8_t *cell_ptr = &world->alive[1 * world_size.x + 1];
	movq	-40(%rbp), %rax	# this, tmp158
	movzwl	34(%rax), %eax	# this_69(D)->world_size.x, _14
# src/main.cc:547:         uint8_t *cell_ptr = &world->alive[1 * world_size.x + 1];
	movswq	%ax, %rax	# _14, _15
# src/main.cc:547:         uint8_t *cell_ptr = &world->alive[1 * world_size.x + 1];
	addq	$1, %rax	#, _16
# src/main.cc:547:         uint8_t *cell_ptr = &world->alive[1 * world_size.x + 1];
	addq	%rdx, %rax	# _13, tmp159
	movq	%rax, -16(%rbp)	# tmp159, cell_ptr
# src/main.cc:552:         for (y = limit_y; y > 0; y--) {
	movzwl	_ZZN5World20world_validate_cellsEvE7limit_y(%rip), %eax	# limit_y, tmp160
	movw	%ax, -26(%rbp)	# tmp160, y
# src/main.cc:552:         for (y = limit_y; y > 0; y--) {
	jmp	.L160	#
.L166:
# src/main.cc:553:             for (x = limit_x; x > 0; x--) {
	movzwl	_ZZN5World20world_validate_cellsEvE7limit_x(%rip), %eax	# limit_x, tmp161
	movw	%ax, -28(%rbp)	# tmp161, x
# src/main.cc:553:             for (x = limit_x; x > 0; x--) {
	jmp	.L161	#
.L165:
# src/main.cc:554:                 count = (*(cell_ptr - world_size.x - 1) +
	movq	-40(%rbp), %rax	# this, tmp162
	movzwl	34(%rax), %eax	# this_69(D)->world_size.x, _17
	movswq	%ax, %rax	# _17, _18
# src/main.cc:554:                 count = (*(cell_ptr - world_size.x - 1) +
	notq	%rax	# _18
	movq	%rax, %rdx	# _18, _19
	movq	-16(%rbp), %rax	# cell_ptr, tmp163
	addq	%rdx, %rax	# _19, _20
# src/main.cc:554:                 count = (*(cell_ptr - world_size.x - 1) +
	movzbl	(%rax), %edx	# *_20, _21
# src/main.cc:555:                          *(cell_ptr - world_size.x)) +
	movq	-40(%rbp), %rax	# this, tmp164
	movzwl	34(%rax), %eax	# this_69(D)->world_size.x, _22
	movswq	%ax, %rax	# _22, _23
# src/main.cc:555:                          *(cell_ptr - world_size.x)) +
	negq	%rax	# _23
	movq	%rax, %rcx	# _23, _24
	movq	-16(%rbp), %rax	# cell_ptr, tmp165
	addq	%rcx, %rax	# _24, _25
# src/main.cc:555:                          *(cell_ptr - world_size.x)) +
	movzbl	(%rax), %eax	# *_25, _26
# src/main.cc:554:                 count = (*(cell_ptr - world_size.x - 1) +
	leal	(%rdx,%rax), %ecx	#, _27
# src/main.cc:556:                         (*(cell_ptr - world_size.x + 1) +
	movq	-40(%rbp), %rax	# this, tmp166
	movzwl	34(%rax), %eax	# this_69(D)->world_size.x, _28
	movswq	%ax, %rax	# _28, _29
# src/main.cc:556:                         (*(cell_ptr - world_size.x + 1) +
	movl	$1, %edx	#, tmp167
	subq	%rax, %rdx	# _29, _30
	movq	-16(%rbp), %rax	# cell_ptr, tmp168
	addq	%rdx, %rax	# _30, _31
# src/main.cc:556:                         (*(cell_ptr - world_size.x + 1) +
	movzbl	(%rax), %edx	# *_31, _32
# src/main.cc:557:                          *(cell_ptr - 1)) +
	movq	-16(%rbp), %rax	# cell_ptr, tmp169
	subq	$1, %rax	#, _33
# src/main.cc:557:                          *(cell_ptr - 1)) +
	movzbl	(%rax), %eax	# *_33, _34
# src/main.cc:556:                         (*(cell_ptr - world_size.x + 1) +
	addl	%edx, %eax	# _32, _35
# src/main.cc:555:                          *(cell_ptr - world_size.x)) +
	addl	%eax, %ecx	# _35, _36
# src/main.cc:558:                         (*(cell_ptr + 1) +
	movq	-16(%rbp), %rax	# cell_ptr, tmp170
	addq	$1, %rax	#, _37
# src/main.cc:558:                         (*(cell_ptr + 1) +
	movzbl	(%rax), %edx	# *_37, _38
# src/main.cc:559:                          *(cell_ptr + world_size.x - 1)) +
	movq	-40(%rbp), %rax	# this, tmp171
	movzwl	34(%rax), %eax	# this_69(D)->world_size.x, _39
	movswq	%ax, %rax	# _39, _40
# src/main.cc:559:                          *(cell_ptr + world_size.x - 1)) +
	leaq	-1(%rax), %rsi	#, _41
	movq	-16(%rbp), %rax	# cell_ptr, tmp172
	addq	%rsi, %rax	# _41, _42
# src/main.cc:559:                          *(cell_ptr + world_size.x - 1)) +
	movzbl	(%rax), %eax	# *_42, _43
# src/main.cc:558:                         (*(cell_ptr + 1) +
	addl	%edx, %eax	# _38, _44
# src/main.cc:557:                          *(cell_ptr - 1)) +
	addl	%eax, %ecx	# _44, _45
# src/main.cc:560:                         (*(cell_ptr + world_size.x) +
	movq	-40(%rbp), %rax	# this, tmp173
	movzwl	34(%rax), %eax	# this_69(D)->world_size.x, _46
	movswq	%ax, %rdx	# _46, _47
# src/main.cc:560:                         (*(cell_ptr + world_size.x) +
	movq	-16(%rbp), %rax	# cell_ptr, tmp174
	addq	%rdx, %rax	# _47, _48
# src/main.cc:560:                         (*(cell_ptr + world_size.x) +
	movzbl	(%rax), %edx	# *_48, _49
# src/main.cc:561:                          *(cell_ptr + world_size.x +
	movq	-40(%rbp), %rax	# this, tmp175
	movzwl	34(%rax), %eax	# this_69(D)->world_size.x, _50
	movswq	%ax, %rax	# _50, _51
# src/main.cc:561:                          *(cell_ptr + world_size.x +
	leaq	1(%rax), %rsi	#, _52
	movq	-16(%rbp), %rax	# cell_ptr, tmp176
	addq	%rsi, %rax	# _52, _53
# src/main.cc:561:                          *(cell_ptr + world_size.x +
	movzbl	(%rax), %eax	# *_53, _54
# src/main.cc:560:                         (*(cell_ptr + world_size.x) +
	addl	%edx, %eax	# _49, _55
# src/main.cc:554:                 count = (*(cell_ptr - world_size.x - 1) +
	addl	%ecx, %eax	# _45, tmp177
	movb	%al, -29(%rbp)	# tmp177, count
# src/main.cc:565:                 if ((*cell_ptr && count != 2 && count != 3) ||
	movq	-16(%rbp), %rax	# cell_ptr, tmp178
	movzbl	(%rax), %eax	# *cell_ptr_60, _56
# src/main.cc:565:                 if ((*cell_ptr && count != 2 && count != 3) ||
	testb	%al, %al	# _56
	je	.L162	#,
# src/main.cc:565:                 if ((*cell_ptr && count != 2 && count != 3) ||
	cmpb	$2, -29(%rbp)	#, count
	je	.L162	#,
# src/main.cc:565:                 if ((*cell_ptr && count != 2 && count != 3) ||
	cmpb	$3, -29(%rbp)	#, count
	jne	.L163	#,
.L162:
# src/main.cc:566:                     (!*cell_ptr && count == 3)) {
	movq	-16(%rbp), %rax	# cell_ptr, tmp179
	movzbl	(%rax), %eax	# *cell_ptr_60, _57
# src/main.cc:565:                 if ((*cell_ptr && count != 2 && count != 3) ||
	testb	%al, %al	# _57
	jne	.L164	#,
# src/main.cc:566:                     (!*cell_ptr && count == 3)) {
	cmpb	$3, -29(%rbp)	#, count
	jne	.L164	#,
.L163:
# src/main.cc:567:                     event_add(cell_ptr);
	movq	-16(%rbp), %rdx	# cell_ptr, tmp180
	movq	-40(%rbp), %rax	# this, tmp181
	movq	%rdx, %rsi	# tmp180,
	movq	%rax, %rdi	# tmp181,
	call	_ZN5World9event_addEPh	#
.L164:
# src/main.cc:569:                 cell_ptr++;
	addq	$1, -16(%rbp)	#, cell_ptr
# src/main.cc:553:             for (x = limit_x; x > 0; x--) {
	movzwl	-28(%rbp), %eax	# x, x.105_58
	subl	$1, %eax	#, tmp182
	movw	%ax, -28(%rbp)	# tmp182, x
.L161:
# src/main.cc:553:             for (x = limit_x; x > 0; x--) {
	cmpw	$0, -28(%rbp)	#, x
	jne	.L165	#,
# src/main.cc:571:             cell_ptr += 2;  // skip border right on y and left on y+1
	addq	$2, -16(%rbp)	#, cell_ptr
# src/main.cc:552:         for (y = limit_y; y > 0; y--) {
	movzwl	-26(%rbp), %eax	# y, y.106_59
	subl	$1, %eax	#, tmp183
	movw	%ax, -26(%rbp)	# tmp183, y
.L160:
# src/main.cc:552:         for (y = limit_y; y > 0; y--) {
	cmpw	$0, -26(%rbp)	#, y
	jne	.L166	#,
# src/main.cc:573:     }
	leaq	-24(%rbp), %rax	#, tmp184
	movq	%rax, %rdi	# tmp184,
	call	_ZNSt10lock_guardISt5mutexED1Ev	#
	movq	-8(%rbp), %rax	# D.106012, tmp186
	subq	%fs:40, %rax	# MEM[(<address-space-1> long unsigned int *)40B], tmp186
	je	.L167	#,
	call	__stack_chk_fail@PLT	#
.L167:
	leave	
	.cfi_def_cfa 7, 8
	ret	
	.cfi_endproc
.LFE2884:
	.size	_ZN5World20world_validate_cellsEv, .-_ZN5World20world_validate_cellsEv
	.section	.text._ZN5World11world_clearE7POINT_TS0_,"axG",@progbits,_ZN5World11world_clearE7POINT_TS0_,comdat
	.align 2
	.weak	_ZN5World11world_clearE7POINT_TS0_
	.type	_ZN5World11world_clearE7POINT_TS0_, @function
_ZN5World11world_clearE7POINT_TS0_:
.LFB2885:
	.cfi_startproc
	.cfi_personality 0x9b,DW.ref.__gxx_personality_v0
	.cfi_lsda 0x1b,.LLSDA2885
	endbr64	
	pushq	%rbp	#
	.cfi_def_cfa_offset 16
	.cfi_offset 6, -16
	movq	%rsp, %rbp	#,
	.cfi_def_cfa_register 6
	pushq	%rbx	#
	subq	$56, %rsp	#,
	.cfi_offset 3, -24
	movq	%rdi, -56(%rbp)	# this, this
	movl	%esi, -60(%rbp)	# pos, pos
	movl	%edx, -64(%rbp)	# size, size
# src/main.cc:581:     void world_clear(point_t pos, const point_t size) {
	movq	%fs:40, %rax	# MEM[(<address-space-1> long unsigned int *)40B], tmp160
	movq	%rax, -24(%rbp)	# tmp160, D.106014
	xorl	%eax, %eax	# tmp160
# src/main.cc:582:         const std::lock_guard<std::mutex> lock(mutex_world);
	movq	-56(%rbp), %rax	# this, tmp141
	leaq	96(%rax), %rdx	#, _1
# src/main.cc:582:         const std::lock_guard<std::mutex> lock(mutex_world);
	leaq	-40(%rbp), %rax	#, tmp142
	movq	%rdx, %rsi	# _1,
	movq	%rax, %rdi	# tmp142,
.LEHB12:
	call	_ZNSt10lock_guardISt5mutexEC1ERS0_	#
.LEHE12:
# src/main.cc:585:         point_t i = {};
	movl	$0, -44(%rbp)	#, i
# src/main.cc:587:         pos.y = limit(pos.y, world_size.y - view_size.y, 0);
	movq	-56(%rbp), %rax	# this, tmp143
	movzwl	32(%rax), %eax	# this_66(D)->world_size.y, _2
	movl	%eax, %edx	# _2, _3
# src/main.cc:587:         pos.y = limit(pos.y, world_size.y - view_size.y, 0);
	movq	-56(%rbp), %rax	# this, tmp144
	movzwl	56(%rax), %eax	# this_66(D)->view_size.y, _4
	movl	%eax, %ecx	# _4, _5
# src/main.cc:587:         pos.y = limit(pos.y, world_size.y - view_size.y, 0);
	movl	%edx, %eax	# _3, _3
	subl	%ecx, %eax	# _5, _3
# src/main.cc:587:         pos.y = limit(pos.y, world_size.y - view_size.y, 0);
	movswl	%ax, %ecx	# _7, _8
# src/main.cc:587:         pos.y = limit(pos.y, world_size.y - view_size.y, 0);
	movzwl	-60(%rbp), %eax	# pos.y, _9
# src/main.cc:587:         pos.y = limit(pos.y, world_size.y - view_size.y, 0);
	cwtl
	movl	$0, %edx	#,
	movl	%ecx, %esi	# _8,
	movl	%eax, %edi	# _10,
	call	_Z5limitsss	#
# src/main.cc:587:         pos.y = limit(pos.y, world_size.y - view_size.y, 0);
	movw	%ax, -60(%rbp)	# _11, pos.y
# src/main.cc:588:         pos.x = limit(pos.x, world_size.x - view_size.x, 0);
	movq	-56(%rbp), %rax	# this, tmp145
	movzwl	34(%rax), %eax	# this_66(D)->world_size.x, _12
	movl	%eax, %edx	# _12, _13
# src/main.cc:588:         pos.x = limit(pos.x, world_size.x - view_size.x, 0);
	movq	-56(%rbp), %rax	# this, tmp146
	movzwl	58(%rax), %eax	# this_66(D)->view_size.x, _14
	movl	%eax, %ecx	# _14, _15
# src/main.cc:588:         pos.x = limit(pos.x, world_size.x - view_size.x, 0);
	movl	%edx, %eax	# _13, _13
	subl	%ecx, %eax	# _15, _13
# src/main.cc:588:         pos.x = limit(pos.x, world_size.x - view_size.x, 0);
	movswl	%ax, %ecx	# _17, _18
# src/main.cc:588:         pos.x = limit(pos.x, world_size.x - view_size.x, 0);
	movzwl	-58(%rbp), %eax	# pos.x, _19
# src/main.cc:588:         pos.x = limit(pos.x, world_size.x - view_size.x, 0);
	cwtl
	movl	$0, %edx	#,
	movl	%ecx, %esi	# _18,
	movl	%eax, %edi	# _20,
	call	_Z5limitsss	#
# src/main.cc:588:         pos.x = limit(pos.x, world_size.x - view_size.x, 0);
	movw	%ax, -58(%rbp)	# _21, pos.x
# src/main.cc:590:         limit_y = pos.y + size.y;
	movzwl	-60(%rbp), %eax	# pos.y, _22
	movl	%eax, %edx	# _22, _23
# src/main.cc:590:         limit_y = pos.y + size.y;
	movzwl	-64(%rbp), %eax	# size.y, _24
# src/main.cc:590:         limit_y = pos.y + size.y;
	addl	%edx, %eax	# _23, tmp147
	movw	%ax, -48(%rbp)	# tmp147, limit_y
# src/main.cc:591:         limit_x = pos.x + size.x;
	movzwl	-58(%rbp), %eax	# pos.x, _26
	movl	%eax, %edx	# _26, _27
# src/main.cc:591:         limit_x = pos.x + size.x;
	movzwl	-62(%rbp), %eax	# size.x, _28
# src/main.cc:591:         limit_x = pos.x + size.x;
	addl	%edx, %eax	# _27, tmp148
	movw	%ax, -46(%rbp)	# tmp148, limit_x
# src/main.cc:593:         events_clear();
	movq	-56(%rbp), %rax	# this, tmp149
	movq	%rax, %rdi	# tmp149,
	call	_ZN5World12events_clearEv	#
# src/main.cc:595:         for (i.y = pos.y; i.y < limit_y; i.y++) {
	movzwl	-60(%rbp), %eax	# pos.y, _30
# src/main.cc:595:         for (i.y = pos.y; i.y < limit_y; i.y++) {
	movw	%ax, -44(%rbp)	# _30, i.y
# src/main.cc:595:         for (i.y = pos.y; i.y < limit_y; i.y++) {
	jmp	.L169	#
.L173:
# src/main.cc:597:                 &world->alive[i.y * world_size.x + pos.x];
	movq	-56(%rbp), %rax	# this, tmp150
	movq	24(%rax), %rax	# this_66(D)->world, _31
# src/main.cc:597:                 &world->alive[i.y * world_size.x + pos.x];
	movq	(%rax), %rcx	# _31->alive, _32
# src/main.cc:597:                 &world->alive[i.y * world_size.x + pos.x];
	movzwl	-44(%rbp), %eax	# i.y, _33
	movswl	%ax, %edx	# _33, _34
# src/main.cc:597:                 &world->alive[i.y * world_size.x + pos.x];
	movq	-56(%rbp), %rax	# this, tmp151
	movzwl	34(%rax), %eax	# this_66(D)->world_size.x, _35
	cwtl
# src/main.cc:597:                 &world->alive[i.y * world_size.x + pos.x];
	imull	%eax, %edx	# _36, _37
# src/main.cc:597:                 &world->alive[i.y * world_size.x + pos.x];
	movzwl	-58(%rbp), %eax	# pos.x, _38
	cwtl
# src/main.cc:597:                 &world->alive[i.y * world_size.x + pos.x];
	addl	%edx, %eax	# _37, _40
	cltq
# src/main.cc:596:             uint8_t *cell_ptr =
	addq	%rcx, %rax	# _32, tmp152
	movq	%rax, -32(%rbp)	# tmp152, cell_ptr
# src/main.cc:598:             for (i.x = pos.x; i.x < limit_x; i.x++) {
	movzwl	-58(%rbp), %eax	# pos.x, _42
# src/main.cc:598:             for (i.x = pos.x; i.x < limit_x; i.x++) {
	movw	%ax, -42(%rbp)	# _42, i.x
# src/main.cc:598:             for (i.x = pos.x; i.x < limit_x; i.x++) {
	jmp	.L170	#
.L172:
# src/main.cc:599:                 if (*cell_ptr) {
	movq	-32(%rbp), %rax	# cell_ptr, tmp153
	movzbl	(%rax), %eax	# *cell_ptr_61, _43
# src/main.cc:599:                 if (*cell_ptr) {
	testb	%al, %al	# _43
	je	.L171	#,
# src/main.cc:600:                     world_set_cell(cell_ptr, false);
	movq	-32(%rbp), %rcx	# cell_ptr, tmp154
	movq	-56(%rbp), %rax	# this, tmp155
	movl	$0, %edx	#,
	movq	%rcx, %rsi	# tmp154,
	movq	%rax, %rdi	# tmp155,
	call	_ZN5World14world_set_cellEPhb	#
.L171:
# src/main.cc:602:                 cell_ptr++;
	addq	$1, -32(%rbp)	#, cell_ptr
# src/main.cc:598:             for (i.x = pos.x; i.x < limit_x; i.x++) {
	movzwl	-42(%rbp), %eax	# i.x, _44
# src/main.cc:598:             for (i.x = pos.x; i.x < limit_x; i.x++) {
	addl	$1, %eax	#, _47
	movw	%ax, -42(%rbp)	# _48, i.x
.L170:
# src/main.cc:598:             for (i.x = pos.x; i.x < limit_x; i.x++) {
	movzwl	-42(%rbp), %eax	# i.x, _49
	movswl	%ax, %edx	# _49, _50
# src/main.cc:598:             for (i.x = pos.x; i.x < limit_x; i.x++) {
	movzwl	-46(%rbp), %eax	# limit_x, _51
# src/main.cc:598:             for (i.x = pos.x; i.x < limit_x; i.x++) {
	cmpl	%eax, %edx	# _51, _50
	jl	.L172	#,
# src/main.cc:595:         for (i.y = pos.y; i.y < limit_y; i.y++) {
	movzwl	-44(%rbp), %eax	# i.y, _52
# src/main.cc:595:         for (i.y = pos.y; i.y < limit_y; i.y++) {
	addl	$1, %eax	#, _55
	movw	%ax, -44(%rbp)	# _56, i.y
.L169:
# src/main.cc:595:         for (i.y = pos.y; i.y < limit_y; i.y++) {
	movzwl	-44(%rbp), %eax	# i.y, _57
	movswl	%ax, %edx	# _57, _58
# src/main.cc:595:         for (i.y = pos.y; i.y < limit_y; i.y++) {
	movzwl	-48(%rbp), %eax	# limit_y, _59
# src/main.cc:595:         for (i.y = pos.y; i.y < limit_y; i.y++) {
	cmpl	%eax, %edx	# _59, _58
	jl	.L173	#,
# src/main.cc:606:         view->refresh_view();
	movq	-56(%rbp), %rax	# this, tmp156
	movq	72(%rax), %rax	# this_66(D)->view, _60
# src/main.cc:606:         view->refresh_view();
	movq	%rax, %rdi	# _60,
.LEHB13:
	call	_ZN4View12refresh_viewEv	#
.LEHE13:
# src/main.cc:607:     }
	leaq	-40(%rbp), %rax	#, tmp157
	movq	%rax, %rdi	# tmp157,
	call	_ZNSt10lock_guardISt5mutexED1Ev	#
	movq	-24(%rbp), %rax	# D.106014, tmp161
	subq	%fs:40, %rax	# MEM[(<address-space-1> long unsigned int *)40B], tmp161
	je	.L175	#,
	jmp	.L177	#
.L176:
	endbr64	
	movq	%rax, %rbx	#, tmp159
	leaq	-40(%rbp), %rax	#, tmp158
	movq	%rax, %rdi	# tmp158,
	call	_ZNSt10lock_guardISt5mutexED1Ev	#
	movq	%rbx, %rax	# tmp159, D.106013
	movq	%rax, %rdi	# D.106013,
.LEHB14:
	call	_Unwind_Resume@PLT	#
.LEHE14:
.L177:
	call	__stack_chk_fail@PLT	#
.L175:
	movq	-8(%rbp), %rbx	#,
	leave	
	.cfi_def_cfa 7, 8
	ret	
	.cfi_endproc
.LFE2885:
	.section	.gcc_except_table._ZN5World11world_clearE7POINT_TS0_,"aG",@progbits,_ZN5World11world_clearE7POINT_TS0_,comdat
.LLSDA2885:
	.byte	0xff
	.byte	0xff
	.byte	0x1
	.uleb128 .LLSDACSE2885-.LLSDACSB2885
.LLSDACSB2885:
	.uleb128 .LEHB12-.LFB2885
	.uleb128 .LEHE12-.LEHB12
	.uleb128 0
	.uleb128 0
	.uleb128 .LEHB13-.LFB2885
	.uleb128 .LEHE13-.LEHB13
	.uleb128 .L176-.LFB2885
	.uleb128 0
	.uleb128 .LEHB14-.LFB2885
	.uleb128 .LEHE14-.LEHB14
	.uleb128 0
	.uleb128 0
.LLSDACSE2885:
	.section	.text._ZN5World11world_clearE7POINT_TS0_,"axG",@progbits,_ZN5World11world_clearE7POINT_TS0_,comdat
	.size	_ZN5World11world_clearE7POINT_TS0_, .-_ZN5World11world_clearE7POINT_TS0_
	.section	.text._ZN5World13infest_randomE7POINT_TS0_j,"axG",@progbits,_ZN5World13infest_randomE7POINT_TS0_j,comdat
	.align 2
	.weak	_ZN5World13infest_randomE7POINT_TS0_j
	.type	_ZN5World13infest_randomE7POINT_TS0_j, @function
_ZN5World13infest_randomE7POINT_TS0_j:
.LFB2886:
	.cfi_startproc
	.cfi_personality 0x9b,DW.ref.__gxx_personality_v0
	.cfi_lsda 0x1b,.LLSDA2886
	endbr64	
	pushq	%rbp	#
	.cfi_def_cfa_offset 16
	.cfi_offset 6, -16
	movq	%rsp, %rbp	#,
	.cfi_def_cfa_register 6
	pushq	%rbx	#
	subq	$72, %rsp	#,
	.cfi_offset 3, -24
	movq	%rdi, -56(%rbp)	# this, this
	movl	%esi, -60(%rbp)	# pos, pos
	movl	%edx, -64(%rbp)	# size, size
	movl	%ecx, -68(%rbp)	# cells, cells
# src/main.cc:615:     void infest_random(const point_t pos, const point_t size,
	movq	%fs:40, %rax	# MEM[(<address-space-1> long unsigned int *)40B], tmp165
	movq	%rax, -24(%rbp)	# tmp165, D.106016
	xorl	%eax, %eax	# tmp165
# src/main.cc:617:         const std::lock_guard<std::mutex> lock(mutex_world);
	movq	-56(%rbp), %rax	# this, tmp147
	leaq	96(%rax), %rdx	#, _1
# src/main.cc:617:         const std::lock_guard<std::mutex> lock(mutex_world);
	leaq	-32(%rbp), %rax	#, tmp148
	movq	%rdx, %rsi	# _1,
	movq	%rax, %rdi	# tmp148,
.LEHB15:
	call	_ZNSt10lock_guardISt5mutexEC1ERS0_	#
.LEHE15:
# src/main.cc:621:         if (pos.y + size.y > world_size.y ||
	movzwl	-60(%rbp), %eax	# pos.y, _2
	movswl	%ax, %edx	# _2, _3
# src/main.cc:621:         if (pos.y + size.y > world_size.y ||
	movzwl	-64(%rbp), %eax	# size.y, _4
	cwtl
# src/main.cc:621:         if (pos.y + size.y > world_size.y ||
	addl	%eax, %edx	# _5, _6
# src/main.cc:621:         if (pos.y + size.y > world_size.y ||
	movq	-56(%rbp), %rax	# this, tmp149
	movzwl	32(%rax), %eax	# this_70(D)->world_size.y, _7
	cwtl
# src/main.cc:621:         if (pos.y + size.y > world_size.y ||
	cmpl	%eax, %edx	# _8, _6
	jg	.L179	#,
# src/main.cc:622:             pos.x + size.x > world_size.x) {
	movzwl	-58(%rbp), %eax	# pos.x, _9
	movswl	%ax, %edx	# _9, _10
# src/main.cc:622:             pos.x + size.x > world_size.x) {
	movzwl	-62(%rbp), %eax	# size.x, _11
	cwtl
# src/main.cc:622:             pos.x + size.x > world_size.x) {
	addl	%eax, %edx	# _12, _13
# src/main.cc:622:             pos.x + size.x > world_size.x) {
	movq	-56(%rbp), %rax	# this, tmp150
	movzwl	34(%rax), %eax	# this_70(D)->world_size.x, _14
	cwtl
# src/main.cc:621:         if (pos.y + size.y > world_size.y ||
	cmpl	%eax, %edx	# _15, _13
	jle	.L180	#,
.L179:
# src/main.cc:623:             return;
	movl	$0, %ebx	#, finally_tmp.45_65
	jmp	.L181	#
.L180:
# src/main.cc:626:         for (i = 0; i < cells; i++) {
	movl	$0, -40(%rbp)	#, i
# src/main.cc:626:         for (i = 0; i < cells; i++) {
	jmp	.L182	#
.L183:
# src/main.cc:628:                 static_cast<int16_t>(random_gen() % size.y + pos.y),
	call	_Z10random_genv	#
	cwtl
# src/main.cc:628:                 static_cast<int16_t>(random_gen() % size.y + pos.y),
	movzwl	-64(%rbp), %edx	# size.y, _18
	movswl	%dx, %ecx	# _18, _19
# src/main.cc:628:                 static_cast<int16_t>(random_gen() % size.y + pos.y),
	cltd
	idivl	%ecx	# _19
	movl	%edx, %eax	# tmp151, _20
# src/main.cc:628:                 static_cast<int16_t>(random_gen() % size.y + pos.y),
	movl	%eax, %edx	# _20, _21
# src/main.cc:628:                 static_cast<int16_t>(random_gen() % size.y + pos.y),
	movzwl	-60(%rbp), %eax	# pos.y, _22
# src/main.cc:628:                 static_cast<int16_t>(random_gen() % size.y + pos.y),
	addl	%edx, %eax	# _21, _24
	movl	%eax, %ebx	# _24, _25
# src/main.cc:629:                 static_cast<int16_t>(random_gen() % size.x + pos.x),
	call	_Z10random_genv	#
	cwtl
# src/main.cc:629:                 static_cast<int16_t>(random_gen() % size.x + pos.x),
	movzwl	-62(%rbp), %edx	# size.x, _28
	movswl	%dx, %ecx	# _28, _29
# src/main.cc:629:                 static_cast<int16_t>(random_gen() % size.x + pos.x),
	cltd
	idivl	%ecx	# _29
	movl	%edx, %eax	# tmp153, _30
# src/main.cc:629:                 static_cast<int16_t>(random_gen() % size.x + pos.x),
	movl	%eax, %edx	# _30, _31
# src/main.cc:629:                 static_cast<int16_t>(random_gen() % size.x + pos.x),
	movzwl	-58(%rbp), %eax	# pos.x, _32
# src/main.cc:629:                 static_cast<int16_t>(random_gen() % size.x + pos.x),
	addl	%edx, %eax	# _31, _34
# src/main.cc:627:             p = {
	movw	%bx, -36(%rbp)	# _25, p.y
	movw	%ax, -34(%rbp)	# _35, p.x
# src/main.cc:632:                            !world->alive[p.y * world_size.x + p.x]);
	movq	-56(%rbp), %rax	# this, tmp155
	movq	24(%rax), %rax	# this_70(D)->world, _36
# src/main.cc:632:                            !world->alive[p.y * world_size.x + p.x]);
	movq	(%rax), %rcx	# _36->alive, _37
# src/main.cc:632:                            !world->alive[p.y * world_size.x + p.x]);
	movzwl	-36(%rbp), %eax	# p.y, _38
	movswl	%ax, %edx	# _38, _39
# src/main.cc:632:                            !world->alive[p.y * world_size.x + p.x]);
	movq	-56(%rbp), %rax	# this, tmp156
	movzwl	34(%rax), %eax	# this_70(D)->world_size.x, _40
	cwtl
# src/main.cc:632:                            !world->alive[p.y * world_size.x + p.x]);
	imull	%eax, %edx	# _41, _42
# src/main.cc:632:                            !world->alive[p.y * world_size.x + p.x]);
	movzwl	-34(%rbp), %eax	# p.x, _43
	cwtl
# src/main.cc:632:                            !world->alive[p.y * world_size.x + p.x]);
	addl	%edx, %eax	# _42, _45
	cltq
# src/main.cc:632:                            !world->alive[p.y * world_size.x + p.x]);
	addq	%rcx, %rax	# _37, _47
	movzbl	(%rax), %eax	# *_47, _48
# src/main.cc:631:             world_set_cell(&world->alive[p.y * world_size.x + p.x],
	testb	%al, %al	# _48
	sete	%al	#, _49
	movzbl	%al, %edx	# _49, _50
# src/main.cc:631:             world_set_cell(&world->alive[p.y * world_size.x + p.x],
	movq	-56(%rbp), %rax	# this, tmp157
	movq	24(%rax), %rax	# this_70(D)->world, _51
# src/main.cc:631:             world_set_cell(&world->alive[p.y * world_size.x + p.x],
	movq	(%rax), %rsi	# _51->alive, _52
# src/main.cc:631:             world_set_cell(&world->alive[p.y * world_size.x + p.x],
	movzwl	-36(%rbp), %eax	# p.y, _53
	movswl	%ax, %ecx	# _53, _54
# src/main.cc:631:             world_set_cell(&world->alive[p.y * world_size.x + p.x],
	movq	-56(%rbp), %rax	# this, tmp158
	movzwl	34(%rax), %eax	# this_70(D)->world_size.x, _55
	cwtl
# src/main.cc:631:             world_set_cell(&world->alive[p.y * world_size.x + p.x],
	imull	%eax, %ecx	# _56, _57
# src/main.cc:631:             world_set_cell(&world->alive[p.y * world_size.x + p.x],
	movzwl	-34(%rbp), %eax	# p.x, _58
	cwtl
# src/main.cc:631:             world_set_cell(&world->alive[p.y * world_size.x + p.x],
	addl	%ecx, %eax	# _57, _60
	cltq
# src/main.cc:631:             world_set_cell(&world->alive[p.y * world_size.x + p.x],
	leaq	(%rsi,%rax), %rcx	#, _62
	movq	-56(%rbp), %rax	# this, tmp159
	movq	%rcx, %rsi	# _62,
	movq	%rax, %rdi	# tmp159,
	call	_ZN5World14world_set_cellEPhb	#
# src/main.cc:626:         for (i = 0; i < cells; i++) {
	addl	$1, -40(%rbp)	#, i
.L182:
# src/main.cc:626:         for (i = 0; i < cells; i++) {
	movl	-40(%rbp), %eax	# i, tmp160
	cmpl	-68(%rbp), %eax	# cells, tmp160
	jb	.L183	#,
# src/main.cc:635:         view->refresh_view();
	movq	-56(%rbp), %rax	# this, tmp161
	movq	72(%rax), %rax	# this_70(D)->view, _63
# src/main.cc:635:         view->refresh_view();
	movq	%rax, %rdi	# _63,
.LEHB16:
	call	_ZN4View12refresh_viewEv	#
.LEHE16:
# src/main.cc:636:     }
	movl	$1, %ebx	#, finally_tmp.45_65
.L181:
# src/main.cc:636:     }
	leaq	-32(%rbp), %rax	#, tmp162
	movq	%rax, %rdi	# tmp162,
	call	_ZNSt10lock_guardISt5mutexED1Ev	#
	cmpl	$1, %ebx	#, finally_tmp.45_65
	movq	-24(%rbp), %rax	# D.106016, tmp166
	subq	%fs:40, %rax	# MEM[(<address-space-1> long unsigned int *)40B], tmp166
	je	.L187	#,
	jmp	.L189	#
.L188:
	endbr64	
# src/main.cc:636:     }
	movq	%rax, %rbx	#, tmp164
	leaq	-32(%rbp), %rax	#, tmp163
	movq	%rax, %rdi	# tmp163,
	call	_ZNSt10lock_guardISt5mutexED1Ev	#
	movq	%rbx, %rax	# tmp164, D.106015
	movq	%rax, %rdi	# D.106015,
.LEHB17:
	call	_Unwind_Resume@PLT	#
.LEHE17:
.L189:
	call	__stack_chk_fail@PLT	#
.L187:
	movq	-8(%rbp), %rbx	#,
	leave	
	.cfi_def_cfa 7, 8
	ret	
	.cfi_endproc
.LFE2886:
	.section	.gcc_except_table._ZN5World13infest_randomE7POINT_TS0_j,"aG",@progbits,_ZN5World13infest_randomE7POINT_TS0_j,comdat
.LLSDA2886:
	.byte	0xff
	.byte	0xff
	.byte	0x1
	.uleb128 .LLSDACSE2886-.LLSDACSB2886
.LLSDACSB2886:
	.uleb128 .LEHB15-.LFB2886
	.uleb128 .LEHE15-.LEHB15
	.uleb128 0
	.uleb128 0
	.uleb128 .LEHB16-.LFB2886
	.uleb128 .LEHE16-.LEHB16
	.uleb128 .L188-.LFB2886
	.uleb128 0
	.uleb128 .LEHB17-.LFB2886
	.uleb128 .LEHE17-.LEHB17
	.uleb128 0
	.uleb128 0
.LLSDACSE2886:
	.section	.text._ZN5World13infest_randomE7POINT_TS0_j,"axG",@progbits,_ZN5World13infest_randomE7POINT_TS0_j,comdat
	.size	_ZN5World13infest_randomE7POINT_TS0_j, .-_ZN5World13infest_randomE7POINT_TS0_j
	.section	.text._ZN5WorldC2E7POINT_TS0_,"axG",@progbits,_ZN5WorldC5E7POINT_TS0_,comdat
	.align 2
	.weak	_ZN5WorldC2E7POINT_TS0_
	.type	_ZN5WorldC2E7POINT_TS0_, @function
_ZN5WorldC2E7POINT_TS0_:
.LFB2893:
	.cfi_startproc
	.cfi_personality 0x9b,DW.ref.__gxx_personality_v0
	.cfi_lsda 0x1b,.LLSDA2893
	endbr64	
	pushq	%rbp	#
	.cfi_def_cfa_offset 16
	.cfi_offset 6, -16
	movq	%rsp, %rbp	#,
	.cfi_def_cfa_register 6
	pushq	%r12	#
	pushq	%rbx	#
	subq	$144, %rsp	#,
	.cfi_offset 12, -24
	.cfi_offset 3, -32
	movq	%rdi, -152(%rbp)	# this, this
	movl	%esi, -156(%rbp)	# _world_size, _world_size
	movl	%edx, -160(%rbp)	# _view_size, _view_size
# src/main.cc:644:     World(const point_t _world_size, const point_t _view_size)
	movq	%fs:40, %rax	# MEM[(<address-space-1> long unsigned int *)40B], tmp231
	movq	%rax, -24(%rbp)	# tmp231, D.106020
	xorl	%eax, %eax	# tmp231
# src/main.cc:645:         : world_size(_world_size), view_size(_view_size) {
	movq	-152(%rbp), %rax	# this, tmp150
	movb	$38, (%rax)	#, this_67(D)->cell_aliv
	movq	-152(%rbp), %rax	# this, tmp151
	movb	$32, 1(%rax)	#, this_67(D)->cell_dead
	movq	-152(%rbp), %rax	# this, tmp152
	movb	$64, 2(%rax)	#, this_67(D)->cell_bord
	movq	-152(%rbp), %rax	# this, tmp153
	movl	$1000, 4(%rax)	#, this_67(D)->infest_cell_view
	movq	-152(%rbp), %rax	# this, tmp154
	movl	$1000000, 8(%rax)	#, this_67(D)->infest_cell_world
	movq	-152(%rbp), %rax	# this, tmp155
	movw	$1000, 12(%rax)	#, this_67(D)->refresh_rate
# src/main.cc:645:         : world_size(_world_size), view_size(_view_size) {
	movq	-152(%rbp), %rax	# this, tmp156
	movl	-156(%rbp), %edx	# _world_size, tmp157
	movl	%edx, 32(%rax)	# tmp157, this_67(D)->world_size
# src/main.cc:645:         : world_size(_world_size), view_size(_view_size) {
	movq	-152(%rbp), %rax	# this, tmp158
	movl	-160(%rbp), %edx	# _view_size, tmp159
	movl	%edx, 56(%rax)	# tmp159, this_67(D)->view_size
# src/main.cc:645:         : world_size(_world_size), view_size(_view_size) {
	movq	-152(%rbp), %rax	# this, tmp160
	movl	$0, 80(%rax)	#, this_67(D)->world_alive_counter
	movq	-152(%rbp), %rax	# this, tmp161
	movb	$0, 84(%rax)	#, this_67(D)->flag_stop
	movq	-152(%rbp), %rax	# this, tmp162
	movl	$1, 88(%rax)	#, this_67(D)->generations
	movq	-152(%rbp), %rax	# this, tmp163
	movb	$1, 92(%rax)	#, this_67(D)->run_auto
	movq	-152(%rbp), %rax	# this, tmp164
	addq	$96, %rax	#, _1
	movq	%rax, %rdi	# _1,
	call	_ZNSt5mutexC1Ev	#
# src/main.cc:646:         uint64_t world_flat_size = world_size.y * world_size.x * 2;
	movq	-152(%rbp), %rax	# this, tmp165
	movzwl	32(%rax), %eax	# this_67(D)->world_size.y, _2
	movswl	%ax, %edx	# _2, _3
# src/main.cc:646:         uint64_t world_flat_size = world_size.y * world_size.x * 2;
	movq	-152(%rbp), %rax	# this, tmp166
	movzwl	34(%rax), %eax	# this_67(D)->world_size.x, _4
	cwtl
# src/main.cc:646:         uint64_t world_flat_size = world_size.y * world_size.x * 2;
	imull	%edx, %eax	# _3, _6
# src/main.cc:646:         uint64_t world_flat_size = world_size.y * world_size.x * 2;
	addl	%eax, %eax	# _7
# src/main.cc:646:         uint64_t world_flat_size = world_size.y * world_size.x * 2;
	cltq
	movq	%rax, -128(%rbp)	# tmp167, world_flat_size
# src/main.cc:647:         uint64_t event_size = world_size.x * world_size.y;
	movq	-152(%rbp), %rax	# this, tmp168
	movzwl	34(%rax), %eax	# this_67(D)->world_size.x, _8
	movswl	%ax, %edx	# _8, _9
# src/main.cc:647:         uint64_t event_size = world_size.x * world_size.y;
	movq	-152(%rbp), %rax	# this, tmp169
	movzwl	32(%rax), %eax	# this_67(D)->world_size.y, _10
	cwtl
# src/main.cc:647:         uint64_t event_size = world_size.x * world_size.y;
	imull	%edx, %eax	# _9, _12
# src/main.cc:647:         uint64_t event_size = world_size.x * world_size.y;
	cltq
	movq	%rax, -120(%rbp)	# tmp170, event_size
# src/main.cc:649:         world_flat = new uint8_t[world_flat_size];
	movq	-128(%rbp), %rax	# world_flat_size, world_flat_size.107_84
	movq	%rax, %rdi	# world_flat_size.107_84,
.LEHB18:
	call	_Znam@PLT	#
	movq	%rax, %rdx	# tmp171, _13
# src/main.cc:649:         world_flat = new uint8_t[world_flat_size];
	movq	-152(%rbp), %rax	# this, tmp172
	movq	%rdx, 16(%rax)	# _13, this_67(D)->world_flat
# src/main.cc:650:         world = new world_storage_t;
	movl	$16, %edi	#,
	call	_Znwm@PLT	#
	movq	%rax, %rdx	# tmp173, _14
# src/main.cc:650:         world = new world_storage_t;
	movq	-152(%rbp), %rax	# this, tmp174
	movq	%rdx, 24(%rax)	# _14, this_67(D)->world
# src/main.cc:652:         world->alive = reinterpret_cast<uint8_t *>(&world_flat[0]);
	movq	-152(%rbp), %rax	# this, tmp175
	movq	24(%rax), %rax	# this_67(D)->world, _15
# src/main.cc:652:         world->alive = reinterpret_cast<uint8_t *>(&world_flat[0]);
	movq	-152(%rbp), %rdx	# this, tmp176
	movq	16(%rdx), %rdx	# this_67(D)->world_flat, _16
# src/main.cc:652:         world->alive = reinterpret_cast<uint8_t *>(&world_flat[0]);
	movq	%rdx, (%rax)	# _16, _15->alive
# src/main.cc:654:             &world_flat[world_size.y * world_size.x]);
	movq	-152(%rbp), %rax	# this, tmp177
	movq	16(%rax), %rcx	# this_67(D)->world_flat, _17
# src/main.cc:654:             &world_flat[world_size.y * world_size.x]);
	movq	-152(%rbp), %rax	# this, tmp178
	movzwl	32(%rax), %eax	# this_67(D)->world_size.y, _18
	movswl	%ax, %edx	# _18, _19
# src/main.cc:654:             &world_flat[world_size.y * world_size.x]);
	movq	-152(%rbp), %rax	# this, tmp179
	movzwl	34(%rax), %eax	# this_67(D)->world_size.x, _20
	cwtl
# src/main.cc:654:             &world_flat[world_size.y * world_size.x]);
	imull	%edx, %eax	# _19, _22
	movslq	%eax, %rdx	# _22, _23
# src/main.cc:653:         world->value = reinterpret_cast<uint8_t *>(
	movq	-152(%rbp), %rax	# this, tmp180
	movq	24(%rax), %rax	# this_67(D)->world, _24
# src/main.cc:653:         world->value = reinterpret_cast<uint8_t *>(
	addq	%rcx, %rdx	# _17, _25
# src/main.cc:653:         world->value = reinterpret_cast<uint8_t *>(
	movq	%rdx, 8(%rax)	# _25, _24->value
# src/main.cc:656:         view_step_size = {view_size.y, view_size.x};
	movq	-152(%rbp), %rax	# this, tmp181
	movzwl	56(%rax), %ecx	# this_67(D)->view_size.y, _26
# src/main.cc:656:         view_step_size = {view_size.y, view_size.x};
	movq	-152(%rbp), %rax	# this, tmp182
	movzwl	58(%rax), %edx	# this_67(D)->view_size.x, _27
# src/main.cc:656:         view_step_size = {view_size.y, view_size.x};
	movq	-152(%rbp), %rax	# this, tmp183
	movw	%cx, 60(%rax)	# _26, this_67(D)->view_step_size.y
	movq	-152(%rbp), %rax	# this, tmp184
	movw	%dx, 62(%rax)	# _27, this_67(D)->view_step_size.x
# src/main.cc:658:             static_cast<int16_t>(world_size.y / 2 - view_size.y / 2),
	movq	-152(%rbp), %rax	# this, tmp185
	movzwl	32(%rax), %eax	# this_67(D)->world_size.y, _28
# src/main.cc:658:             static_cast<int16_t>(world_size.y / 2 - view_size.y / 2),
	movl	%eax, %edx	# _28, tmp186
	shrw	$15, %dx	#, tmp186
	addl	%edx, %eax	# tmp186, tmp187
	sarw	%ax	# tmp188
	movl	%eax, %edx	# _29, _30
# src/main.cc:658:             static_cast<int16_t>(world_size.y / 2 - view_size.y / 2),
	movq	-152(%rbp), %rax	# this, tmp189
	movzwl	56(%rax), %eax	# this_67(D)->view_size.y, _31
# src/main.cc:658:             static_cast<int16_t>(world_size.y / 2 - view_size.y / 2),
	movl	%eax, %ecx	# _31, tmp190
	shrw	$15, %cx	#, tmp190
	addl	%ecx, %eax	# tmp190, tmp191
	sarw	%ax	# tmp192
	movl	%eax, %ecx	# _32, _33
# src/main.cc:658:             static_cast<int16_t>(world_size.y / 2 - view_size.y / 2),
	movl	%edx, %eax	# _30, _30
	subl	%ecx, %eax	# _33, _30
	movl	%eax, %ecx	# _34, _35
# src/main.cc:659:             static_cast<int16_t>(world_size.x / 2 - view_size.x / 2),
	movq	-152(%rbp), %rax	# this, tmp193
	movzwl	34(%rax), %eax	# this_67(D)->world_size.x, _36
# src/main.cc:659:             static_cast<int16_t>(world_size.x / 2 - view_size.x / 2),
	movl	%eax, %edx	# _36, tmp194
	shrw	$15, %dx	#, tmp194
	addl	%edx, %eax	# tmp194, tmp195
	sarw	%ax	# tmp196
	movl	%eax, %edx	# _37, _38
# src/main.cc:659:             static_cast<int16_t>(world_size.x / 2 - view_size.x / 2),
	movq	-152(%rbp), %rax	# this, tmp197
	movzwl	58(%rax), %eax	# this_67(D)->view_size.x, _39
# src/main.cc:659:             static_cast<int16_t>(world_size.x / 2 - view_size.x / 2),
	movl	%eax, %esi	# _39, tmp198
	shrw	$15, %si	#, tmp198
	addl	%esi, %eax	# tmp198, tmp199
	sarw	%ax	# tmp200
	movl	%eax, %esi	# _40, _41
# src/main.cc:659:             static_cast<int16_t>(world_size.x / 2 - view_size.x / 2),
	movl	%edx, %eax	# _38, _38
	subl	%esi, %eax	# _41, _38
	movl	%eax, %edx	# _42, _43
# src/main.cc:657:         view_pos = {
	movq	-152(%rbp), %rax	# this, tmp201
	movw	%cx, 64(%rax)	# _35, this_67(D)->view_pos.y
	movq	-152(%rbp), %rax	# this, tmp202
	movw	%dx, 66(%rax)	# _43, this_67(D)->view_pos.x
# src/main.cc:663:             view_size, world_size.x - 1);
	movq	-152(%rbp), %rax	# this, tmp203
	movl	56(%rax), %eax	# this_67(D)->view_size, tmp204
	movl	%eax, -96(%rbp)	# tmp204, MEM[(struct POINT_T *)_124]
# src/main.cc:663:             view_size, world_size.x - 1);
	movl	$144, %edi	#,
	call	_Znwm@PLT	#
.LEHE18:
	movq	%rax, %rbx	# tmp205, _99
# src/main.cc:663:             view_size, world_size.x - 1);
	movq	-152(%rbp), %rax	# this, tmp206
	movzwl	34(%rax), %eax	# this_67(D)->world_size.x, _44
	cwtl
# src/main.cc:663:             view_size, world_size.x - 1);
	subl	$1, %eax	#, _46
# src/main.cc:663:             view_size, world_size.x - 1);
	movl	%eax, %ecx	# _46, _47
# src/main.cc:662:             &world->value[view_pos.y * world_size.x + view_pos.x],
	movq	-152(%rbp), %rax	# this, tmp207
	movq	24(%rax), %rax	# this_67(D)->world, _48
# src/main.cc:662:             &world->value[view_pos.y * world_size.x + view_pos.x],
	movq	8(%rax), %rsi	# _48->value, _49
# src/main.cc:662:             &world->value[view_pos.y * world_size.x + view_pos.x],
	movq	-152(%rbp), %rax	# this, tmp208
	movzwl	64(%rax), %eax	# this_67(D)->view_pos.y, _50
	movswl	%ax, %edx	# _50, _51
# src/main.cc:662:             &world->value[view_pos.y * world_size.x + view_pos.x],
	movq	-152(%rbp), %rax	# this, tmp209
	movzwl	34(%rax), %eax	# this_67(D)->world_size.x, _52
	cwtl
# src/main.cc:662:             &world->value[view_pos.y * world_size.x + view_pos.x],
	imull	%eax, %edx	# _53, _54
# src/main.cc:662:             &world->value[view_pos.y * world_size.x + view_pos.x],
	movq	-152(%rbp), %rax	# this, tmp210
	movzwl	66(%rax), %eax	# this_67(D)->view_pos.x, _55
	cwtl
# src/main.cc:662:             &world->value[view_pos.y * world_size.x + view_pos.x],
	addl	%edx, %eax	# _54, _57
	cltq
# src/main.cc:663:             view_size, world_size.x - 1);
	addq	%rax, %rsi	# _58, _59
	movl	-96(%rbp), %eax	# MEM[(struct POINT_T *)_124], tmp211
	movl	%eax, %edx	# tmp211,
	movq	%rbx, %rdi	# _99,
.LEHB19:
	call	_ZN4ViewC1EPh7POINT_Tj	#
.LEHE19:
# src/main.cc:661:         view = new View(
	movq	-152(%rbp), %rax	# this, tmp212
	movq	%rbx, 72(%rax)	# _99, this_67(D)->view
# src/main.cc:664:         view->set_print_callback(std::bind(&World::print_info, this));
	movq	-152(%rbp), %rax	# this, tmp213
	movq	72(%rax), %rbx	# this_67(D)->view, _60
# src/main.cc:664:         view->set_print_callback(std::bind(&World::print_info, this));
	movq	-152(%rbp), %rax	# this, tmp214
	movq	%rax, -136(%rbp)	# tmp214, D.64328
# src/main.cc:664:         view->set_print_callback(std::bind(&World::print_info, this));
	leaq	_ZN5World10print_infoEv(%rip), %rax	#, tmp215
	movq	%rax, -112(%rbp)	# tmp215, D.64327.__pfn
	movq	$0, -104(%rbp)	#, D.64327.__delta
# src/main.cc:664:         view->set_print_callback(std::bind(&World::print_info, this));
	leaq	-96(%rbp), %rax	#, tmp216
	leaq	-136(%rbp), %rdx	#, tmp217
	leaq	-112(%rbp), %rcx	#, tmp218
	movq	%rcx, %rsi	# tmp218,
	movq	%rax, %rdi	# tmp216,
.LEHB20:
	call	_ZSt4bindIM5WorldFvvEJPS0_EENSt12_Bind_helperIXsrSt5__or_IJSt11is_integralINSt5decayIT_E4typeEESt7is_enumISA_EEE5valueES8_JDpT0_EE4typeEOS8_DpOSF_	#
# src/main.cc:664:         view->set_print_callback(std::bind(&World::print_info, this));
	leaq	-96(%rbp), %rdx	#, tmp219
	leaq	-64(%rbp), %rax	#, tmp220
	movq	%rdx, %rsi	# tmp219,
	movq	%rax, %rdi	# tmp220,
	call	_ZNSt8functionIFvvEEC1ISt5_BindIFM5WorldFvvEPS4_EEvEEOT_	#
.LEHE20:
	leaq	-64(%rbp), %rax	#, tmp221
	movq	%rax, %rsi	# tmp221,
	movq	%rbx, %rdi	# _60,
.LEHB21:
	call	_ZN4View18set_print_callbackESt8functionIFvvEE	#
.LEHE21:
# src/main.cc:664:         view->set_print_callback(std::bind(&World::print_info, this));
	leaq	-64(%rbp), %rax	#, tmp222
	movq	%rax, %rdi	# tmp222,
	call	_ZNSt8functionIFvvEED1Ev	#
# src/main.cc:666:         events = new uint8_t *[event_size];
	movq	-120(%rbp), %rax	# event_size, event_size.109_115
# src/main.cc:666:         events = new uint8_t *[event_size];
	movabsq	$1152921504606846975, %rdx	#, tmp223
	cmpq	%rdx, %rax	# tmp223, event_size.109_115
	ja	.L191	#,
# src/main.cc:666:         events = new uint8_t *[event_size];
	salq	$3, %rax	#, iftmp.108_117
	movq	%rax, %rdi	# iftmp.108_117,
.LEHB22:
	call	_Znam@PLT	#
	movq	%rax, %rdx	# tmp224, _61
# src/main.cc:666:         events = new uint8_t *[event_size];
	movq	-152(%rbp), %rax	# this, tmp225
	movq	%rdx, 40(%rax)	# _61, this_67(D)->events
# src/main.cc:667:         event_current = events;
	movq	-152(%rbp), %rax	# this, tmp226
	movq	40(%rax), %rdx	# this_67(D)->events, _62
# src/main.cc:667:         event_current = events;
	movq	-152(%rbp), %rax	# this, tmp227
	movq	%rdx, 48(%rax)	# _62, this_67(D)->event_current
# src/main.cc:668:     }
	nop	
	movq	-24(%rbp), %rax	# D.106020, tmp232
	subq	%fs:40, %rax	# MEM[(<address-space-1> long unsigned int *)40B], tmp232
	je	.L195	#,
	jmp	.L198	#
.L191:
# src/main.cc:666:         events = new uint8_t *[event_size];
	call	__cxa_throw_bad_array_new_length@PLT	#
.L196:
	endbr64	
# src/main.cc:663:             view_size, world_size.x - 1);
	movq	%rax, %r12	#, tmp228
	movq	%rbx, %rdi	# _99,
	call	_ZdlPv@PLT	#
	movq	%r12, %rax	# tmp228, D.106017
	movq	%rax, %rdi	# D.106017,
	call	_Unwind_Resume@PLT	#
.L197:
	endbr64	
# src/main.cc:664:         view->set_print_callback(std::bind(&World::print_info, this));
	movq	%rax, %rbx	#, tmp230
	leaq	-64(%rbp), %rax	#, tmp229
	movq	%rax, %rdi	# tmp229,
	call	_ZNSt8functionIFvvEED1Ev	#
	movq	%rbx, %rax	# tmp230, D.106018
	movq	%rax, %rdi	# D.106018,
	call	_Unwind_Resume@PLT	#
.LEHE22:
.L198:
# src/main.cc:668:     }
	call	__stack_chk_fail@PLT	#
.L195:
	addq	$144, %rsp	#,
	popq	%rbx	#
	popq	%r12	#
	popq	%rbp	#
	.cfi_def_cfa 7, 8
	ret	
	.cfi_endproc
.LFE2893:
	.section	.gcc_except_table._ZN5WorldC2E7POINT_TS0_,"aG",@progbits,_ZN5WorldC5E7POINT_TS0_,comdat
.LLSDA2893:
	.byte	0xff
	.byte	0xff
	.byte	0x1
	.uleb128 .LLSDACSE2893-.LLSDACSB2893
.LLSDACSB2893:
	.uleb128 .LEHB18-.LFB2893
	.uleb128 .LEHE18-.LEHB18
	.uleb128 0
	.uleb128 0
	.uleb128 .LEHB19-.LFB2893
	.uleb128 .LEHE19-.LEHB19
	.uleb128 .L196-.LFB2893
	.uleb128 0
	.uleb128 .LEHB20-.LFB2893
	.uleb128 .LEHE20-.LEHB20
	.uleb128 0
	.uleb128 0
	.uleb128 .LEHB21-.LFB2893
	.uleb128 .LEHE21-.LEHB21
	.uleb128 .L197-.LFB2893
	.uleb128 0
	.uleb128 .LEHB22-.LFB2893
	.uleb128 .LEHE22-.LEHB22
	.uleb128 0
	.uleb128 0
.LLSDACSE2893:
	.section	.text._ZN5WorldC2E7POINT_TS0_,"axG",@progbits,_ZN5WorldC5E7POINT_TS0_,comdat
	.size	_ZN5WorldC2E7POINT_TS0_, .-_ZN5WorldC2E7POINT_TS0_
	.weak	_ZN5WorldC1E7POINT_TS0_
	.set	_ZN5WorldC1E7POINT_TS0_,_ZN5WorldC2E7POINT_TS0_
	.section	.text._ZN4ViewD2Ev,"axG",@progbits,_ZN4ViewD5Ev,comdat
	.align 2
	.weak	_ZN4ViewD2Ev
	.type	_ZN4ViewD2Ev, @function
_ZN4ViewD2Ev:
.LFB2897:
	.cfi_startproc
	endbr64	
	pushq	%rbp	#
	.cfi_def_cfa_offset 16
	.cfi_offset 6, -16
	movq	%rsp, %rbp	#,
	.cfi_def_cfa_register 6
	subq	$16, %rsp	#,
	movq	%rdi, -8(%rbp)	# this, this
# src/main.cc:106: class View {
	movq	-8(%rbp), %rax	# this, tmp84
	addq	$104, %rax	#, _1
	movq	%rax, %rdi	# _1,
	call	_ZNSt8functionIFvvEED1Ev	#
	movq	-8(%rbp), %rax	# this, _2
	movq	%rax, %rdi	# _2,
	call	_ZNSt7__cxx1112basic_stringIcSt11char_traitsIcESaIcEED1Ev@PLT	#
	nop	
	leave	
	.cfi_def_cfa 7, 8
	ret	
	.cfi_endproc
.LFE2897:
	.size	_ZN4ViewD2Ev, .-_ZN4ViewD2Ev
	.weak	_ZN4ViewD1Ev
	.set	_ZN4ViewD1Ev,_ZN4ViewD2Ev
	.section	.text._ZN5WorldD2Ev,"axG",@progbits,_ZN5WorldD5Ev,comdat
	.align 2
	.weak	_ZN5WorldD2Ev
	.type	_ZN5WorldD2Ev, @function
_ZN5WorldD2Ev:
.LFB2899:
	.cfi_startproc
	endbr64	
	pushq	%rbp	#
	.cfi_def_cfa_offset 16
	.cfi_offset 6, -16
	movq	%rsp, %rbp	#,
	.cfi_def_cfa_register 6
	pushq	%rbx	#
	subq	$24, %rsp	#,
	.cfi_offset 3, -24
	movq	%rdi, -24(%rbp)	# this, this
# src/main.cc:674:         delete[] world_flat;
	movq	-24(%rbp), %rax	# this, tmp88
	movq	16(%rax), %rax	# this_10(D)->world_flat, _1
# src/main.cc:674:         delete[] world_flat;
	testq	%rax, %rax	# _1
	je	.L201	#,
# src/main.cc:674:         delete[] world_flat;
	movq	-24(%rbp), %rax	# this, tmp89
	movq	16(%rax), %rax	# this_10(D)->world_flat, _2
	movq	%rax, %rdi	# _2,
	call	_ZdaPv@PLT	#
.L201:
# src/main.cc:675:         delete world;
	movq	-24(%rbp), %rax	# this, tmp90
	movq	24(%rax), %rax	# this_10(D)->world, _12
# src/main.cc:675:         delete world;
	testq	%rax, %rax	# _12
	je	.L202	#,
# src/main.cc:675:         delete world;
	movq	%rax, %rdi	# _12,
	call	_ZdlPv@PLT	#
.L202:
# src/main.cc:676:         delete[] events;
	movq	-24(%rbp), %rax	# this, tmp91
	movq	40(%rax), %rax	# this_10(D)->events, _3
# src/main.cc:676:         delete[] events;
	testq	%rax, %rax	# _3
	je	.L203	#,
# src/main.cc:676:         delete[] events;
	movq	-24(%rbp), %rax	# this, tmp92
	movq	40(%rax), %rax	# this_10(D)->events, _4
	movq	%rax, %rdi	# _4,
	call	_ZdaPv@PLT	#
.L203:
# src/main.cc:677:         delete view;
	movq	-24(%rbp), %rax	# this, tmp93
	movq	72(%rax), %rbx	# this_10(D)->view, _16
# src/main.cc:677:         delete view;
	testq	%rbx, %rbx	# _16
	je	.L205	#,
# src/main.cc:677:         delete view;
	movq	%rbx, %rdi	# _16,
	call	_ZN4ViewD1Ev	#
	movq	%rbx, %rdi	# _16,
	call	_ZdlPv@PLT	#
.L205:
# src/main.cc:678:     }
	nop	
	movq	-8(%rbp), %rbx	#,
	leave	
	.cfi_def_cfa 7, 8
	ret	
	.cfi_endproc
.LFE2899:
	.size	_ZN5WorldD2Ev, .-_ZN5WorldD2Ev
	.weak	_ZN5WorldD1Ev
	.set	_ZN5WorldD1Ev,_ZN5WorldD2Ev
	.section	.text._ZN5World15set_generationsEj,"axG",@progbits,_ZN5World15set_generationsEj,comdat
	.align 2
	.weak	_ZN5World15set_generationsEj
	.type	_ZN5World15set_generationsEj, @function
_ZN5World15set_generationsEj:
.LFB2901:
	.cfi_startproc
	endbr64	
	pushq	%rbp	#
	.cfi_def_cfa_offset 16
	.cfi_offset 6, -16
	movq	%rsp, %rbp	#,
	.cfi_def_cfa_register 6
	movq	%rdi, -8(%rbp)	# this, this
	movl	%esi, -12(%rbp)	# v, v
# src/main.cc:684:     void set_generations(uint32_t v) { generations = v; }
	movq	-8(%rbp), %rax	# this, tmp82
	movl	-12(%rbp), %edx	# v, tmp83
	movl	%edx, 88(%rax)	# tmp83, this_2(D)->generations
# src/main.cc:684:     void set_generations(uint32_t v) { generations = v; }
	nop	
	popq	%rbp	#
	.cfi_def_cfa 7, 8
	ret	
	.cfi_endproc
.LFE2901:
	.size	_ZN5World15set_generationsEj, .-_ZN5World15set_generationsEj
	.section	.text._ZN5World13set_cell_alivEc,"axG",@progbits,_ZN5World13set_cell_alivEc,comdat
	.align 2
	.weak	_ZN5World13set_cell_alivEc
	.type	_ZN5World13set_cell_alivEc, @function
_ZN5World13set_cell_alivEc:
.LFB2902:
	.cfi_startproc
	endbr64	
	pushq	%rbp	#
	.cfi_def_cfa_offset 16
	.cfi_offset 6, -16
	movq	%rsp, %rbp	#,
	.cfi_def_cfa_register 6
	subq	$16, %rsp	#,
	movq	%rdi, -8(%rbp)	# this, this
	movl	%esi, %eax	# c, tmp84
	movb	%al, -12(%rbp)	# tmp85, c
# src/main.cc:690:     void set_cell_aliv(const char c) { set_cell_char(cell_aliv, c); }
	movsbl	-12(%rbp), %edx	# c, _1
# src/main.cc:690:     void set_cell_aliv(const char c) { set_cell_char(cell_aliv, c); }
	movq	-8(%rbp), %rcx	# this, _2
# src/main.cc:690:     void set_cell_aliv(const char c) { set_cell_char(cell_aliv, c); }
	movq	-8(%rbp), %rax	# this, tmp86
	movq	%rcx, %rsi	# _2,
	movq	%rax, %rdi	# tmp86,
	call	_ZN5World13set_cell_charERcc	#
# src/main.cc:690:     void set_cell_aliv(const char c) { set_cell_char(cell_aliv, c); }
	nop	
	leave	
	.cfi_def_cfa 7, 8
	ret	
	.cfi_endproc
.LFE2902:
	.size	_ZN5World13set_cell_alivEc, .-_ZN5World13set_cell_alivEc
	.section	.text._ZN5World13set_cell_deadEc,"axG",@progbits,_ZN5World13set_cell_deadEc,comdat
	.align 2
	.weak	_ZN5World13set_cell_deadEc
	.type	_ZN5World13set_cell_deadEc, @function
_ZN5World13set_cell_deadEc:
.LFB2903:
	.cfi_startproc
	endbr64	
	pushq	%rbp	#
	.cfi_def_cfa_offset 16
	.cfi_offset 6, -16
	movq	%rsp, %rbp	#,
	.cfi_def_cfa_register 6
	subq	$16, %rsp	#,
	movq	%rdi, -8(%rbp)	# this, this
	movl	%esi, %eax	# c, tmp84
	movb	%al, -12(%rbp)	# tmp85, c
# src/main.cc:696:     void set_cell_dead(const char c) { set_cell_char(cell_dead, c); }
	movsbl	-12(%rbp), %edx	# c, _1
# src/main.cc:696:     void set_cell_dead(const char c) { set_cell_char(cell_dead, c); }
	movq	-8(%rbp), %rax	# this, tmp86
	leaq	1(%rax), %rcx	#, _2
# src/main.cc:696:     void set_cell_dead(const char c) { set_cell_char(cell_dead, c); }
	movq	-8(%rbp), %rax	# this, tmp87
	movq	%rcx, %rsi	# _2,
	movq	%rax, %rdi	# tmp87,
	call	_ZN5World13set_cell_charERcc	#
# src/main.cc:696:     void set_cell_dead(const char c) { set_cell_char(cell_dead, c); }
	nop	
	leave	
	.cfi_def_cfa 7, 8
	ret	
	.cfi_endproc
.LFE2903:
	.size	_ZN5World13set_cell_deadEc, .-_ZN5World13set_cell_deadEc
	.section	.text._ZN5World13set_cell_bordEc,"axG",@progbits,_ZN5World13set_cell_bordEc,comdat
	.align 2
	.weak	_ZN5World13set_cell_bordEc
	.type	_ZN5World13set_cell_bordEc, @function
_ZN5World13set_cell_bordEc:
.LFB2904:
	.cfi_startproc
	endbr64	
	pushq	%rbp	#
	.cfi_def_cfa_offset 16
	.cfi_offset 6, -16
	movq	%rsp, %rbp	#,
	.cfi_def_cfa_register 6
	subq	$16, %rsp	#,
	movq	%rdi, -8(%rbp)	# this, this
	movl	%esi, %eax	# c, tmp84
	movb	%al, -12(%rbp)	# tmp85, c
# src/main.cc:702:     void set_cell_bord(const char c) { set_cell_char(cell_bord, c); }
	movsbl	-12(%rbp), %edx	# c, _1
# src/main.cc:702:     void set_cell_bord(const char c) { set_cell_char(cell_bord, c); }
	movq	-8(%rbp), %rax	# this, tmp86
	leaq	2(%rax), %rcx	#, _2
# src/main.cc:702:     void set_cell_bord(const char c) { set_cell_char(cell_bord, c); }
	movq	-8(%rbp), %rax	# this, tmp87
	movq	%rcx, %rsi	# _2,
	movq	%rax, %rdi	# tmp87,
	call	_ZN5World13set_cell_charERcc	#
# src/main.cc:702:     void set_cell_bord(const char c) { set_cell_char(cell_bord, c); }
	nop	
	leave	
	.cfi_def_cfa 7, 8
	ret	
	.cfi_endproc
.LFE2904:
	.size	_ZN5World13set_cell_bordEc, .-_ZN5World13set_cell_bordEc
	.section	.text._ZN5World20set_infest_cell_viewEj,"axG",@progbits,_ZN5World20set_infest_cell_viewEj,comdat
	.align 2
	.weak	_ZN5World20set_infest_cell_viewEj
	.type	_ZN5World20set_infest_cell_viewEj, @function
_ZN5World20set_infest_cell_viewEj:
.LFB2905:
	.cfi_startproc
	endbr64	
	pushq	%rbp	#
	.cfi_def_cfa_offset 16
	.cfi_offset 6, -16
	movq	%rsp, %rbp	#,
	.cfi_def_cfa_register 6
	movq	%rdi, -8(%rbp)	# this, this
	movl	%esi, -12(%rbp)	# v, v
# src/main.cc:709:         infest_cell_view = v;
	movq	-8(%rbp), %rax	# this, tmp82
	movl	-12(%rbp), %edx	# v, tmp83
	movl	%edx, 4(%rax)	# tmp83, this_2(D)->infest_cell_view
# src/main.cc:710:     }
	nop	
	popq	%rbp	#
	.cfi_def_cfa 7, 8
	ret	
	.cfi_endproc
.LFE2905:
	.size	_ZN5World20set_infest_cell_viewEj, .-_ZN5World20set_infest_cell_viewEj
	.section	.text._ZN5World21set_infest_cell_worldEj,"axG",@progbits,_ZN5World21set_infest_cell_worldEj,comdat
	.align 2
	.weak	_ZN5World21set_infest_cell_worldEj
	.type	_ZN5World21set_infest_cell_worldEj, @function
_ZN5World21set_infest_cell_worldEj:
.LFB2906:
	.cfi_startproc
	endbr64	
	pushq	%rbp	#
	.cfi_def_cfa_offset 16
	.cfi_offset 6, -16
	movq	%rsp, %rbp	#,
	.cfi_def_cfa_register 6
	movq	%rdi, -8(%rbp)	# this, this
	movl	%esi, -12(%rbp)	# v, v
# src/main.cc:717:         infest_cell_world = v;
	movq	-8(%rbp), %rax	# this, tmp82
	movl	-12(%rbp), %edx	# v, tmp83
	movl	%edx, 8(%rax)	# tmp83, this_2(D)->infest_cell_world
# src/main.cc:718:     }
	nop	
	popq	%rbp	#
	.cfi_def_cfa 7, 8
	ret	
	.cfi_endproc
.LFE2906:
	.size	_ZN5World21set_infest_cell_worldEj, .-_ZN5World21set_infest_cell_worldEj
	.section	.text._ZN5World20set_view_step_size_yEj,"axG",@progbits,_ZN5World20set_view_step_size_yEj,comdat
	.align 2
	.weak	_ZN5World20set_view_step_size_yEj
	.type	_ZN5World20set_view_step_size_yEj, @function
_ZN5World20set_view_step_size_yEj:
.LFB2907:
	.cfi_startproc
	endbr64	
	pushq	%rbp	#
	.cfi_def_cfa_offset 16
	.cfi_offset 6, -16
	movq	%rsp, %rbp	#,
	.cfi_def_cfa_register 6
	subq	$16, %rsp	#,
	movq	%rdi, -8(%rbp)	# this, this
	movl	%esi, -12(%rbp)	# v, v
# src/main.cc:725:         view_step_size.y = v;
	movl	-12(%rbp), %eax	# v, tmp84
	movl	%eax, %edx	# tmp84, _1
	movq	-8(%rbp), %rax	# this, tmp85
	movw	%dx, 60(%rax)	# _1, this_5(D)->view_step_size.y
# src/main.cc:726:         view->refresh_info();
	movq	-8(%rbp), %rax	# this, tmp86
	movq	72(%rax), %rax	# this_5(D)->view, _2
# src/main.cc:726:         view->refresh_info();
	movq	%rax, %rdi	# _2,
	call	_ZN4View12refresh_infoEv	#
# src/main.cc:727:     }
	nop	
	leave	
	.cfi_def_cfa 7, 8
	ret	
	.cfi_endproc
.LFE2907:
	.size	_ZN5World20set_view_step_size_yEj, .-_ZN5World20set_view_step_size_yEj
	.section	.text._ZN5World20set_view_step_size_xEj,"axG",@progbits,_ZN5World20set_view_step_size_xEj,comdat
	.align 2
	.weak	_ZN5World20set_view_step_size_xEj
	.type	_ZN5World20set_view_step_size_xEj, @function
_ZN5World20set_view_step_size_xEj:
.LFB2908:
	.cfi_startproc
	endbr64	
	pushq	%rbp	#
	.cfi_def_cfa_offset 16
	.cfi_offset 6, -16
	movq	%rsp, %rbp	#,
	.cfi_def_cfa_register 6
	subq	$16, %rsp	#,
	movq	%rdi, -8(%rbp)	# this, this
	movl	%esi, -12(%rbp)	# v, v
# src/main.cc:734:         view_step_size.x = v;
	movl	-12(%rbp), %eax	# v, tmp84
	movl	%eax, %edx	# tmp84, _1
	movq	-8(%rbp), %rax	# this, tmp85
	movw	%dx, 62(%rax)	# _1, this_5(D)->view_step_size.x
# src/main.cc:735:         view->refresh_info();
	movq	-8(%rbp), %rax	# this, tmp86
	movq	72(%rax), %rax	# this_5(D)->view, _2
# src/main.cc:735:         view->refresh_info();
	movq	%rax, %rdi	# _2,
	call	_ZN4View12refresh_infoEv	#
# src/main.cc:736:     }
	nop	
	leave	
	.cfi_def_cfa 7, 8
	ret	
	.cfi_endproc
.LFE2908:
	.size	_ZN5World20set_view_step_size_xEj, .-_ZN5World20set_view_step_size_xEj
	.section	.text._ZN5World16set_refresh_rateEt,"axG",@progbits,_ZN5World16set_refresh_rateEt,comdat
	.align 2
	.weak	_ZN5World16set_refresh_rateEt
	.type	_ZN5World16set_refresh_rateEt, @function
_ZN5World16set_refresh_rateEt:
.LFB2909:
	.cfi_startproc
	endbr64	
	pushq	%rbp	#
	.cfi_def_cfa_offset 16
	.cfi_offset 6, -16
	movq	%rsp, %rbp	#,
	.cfi_def_cfa_register 6
	subq	$16, %rsp	#,
	movq	%rdi, -8(%rbp)	# this, this
	movl	%esi, %eax	# rate, tmp87
	movw	%ax, -12(%rbp)	# tmp88, rate
# src/main.cc:744:             limit(rate, 10000, 10);  // limit to 10 ms and 10 s, rate
	movzwl	-12(%rbp), %eax	# rate, rate.63_1
# src/main.cc:744:             limit(rate, 10000, 10);  // limit to 10 ms and 10 s, rate
	cwtl
	movl	$10, %edx	#,
	movl	$10000, %esi	#,
	movl	%eax, %edi	# _2,
	call	_Z5limitsss	#
	movl	%eax, %edx	# _3, _4
# src/main.cc:743:         refresh_rate =
	movq	-8(%rbp), %rax	# this, tmp89
	movw	%dx, 12(%rax)	# _4, this_9(D)->refresh_rate
# src/main.cc:746:         view->refresh_info();
	movq	-8(%rbp), %rax	# this, tmp90
	movq	72(%rax), %rax	# this_9(D)->view, _5
# src/main.cc:746:         view->refresh_info();
	movq	%rax, %rdi	# _5,
	call	_ZN4View12refresh_infoEv	#
# src/main.cc:747:     }
	nop	
	leave	
	.cfi_def_cfa 7, 8
	ret	
	.cfi_endproc
.LFE2909:
	.size	_ZN5World16set_refresh_rateEt, .-_ZN5World16set_refresh_rateEt
	.section	.text._ZN5World13set_view_sizeE7POINT_T,"axG",@progbits,_ZN5World13set_view_sizeE7POINT_T,comdat
	.align 2
	.weak	_ZN5World13set_view_sizeE7POINT_T
	.type	_ZN5World13set_view_sizeE7POINT_T, @function
_ZN5World13set_view_sizeE7POINT_T:
.LFB2910:
	.cfi_startproc
	endbr64	
	pushq	%rbp	#
	.cfi_def_cfa_offset 16
	.cfi_offset 6, -16
	movq	%rsp, %rbp	#,
	.cfi_def_cfa_register 6
	subq	$16, %rsp	#,
	movq	%rdi, -8(%rbp)	# this, this
	movl	%esi, -12(%rbp)	# s, s
# src/main.cc:754:         view_size = s;
	movq	-8(%rbp), %rax	# this, tmp82
	movl	-12(%rbp), %edx	# s, tmp83
	movl	%edx, 56(%rax)	# tmp83, this_2(D)->view_size
# src/main.cc:755:         view_move(view_pos);  // correct the view when the size
	movq	-8(%rbp), %rax	# this, tmp84
	movl	64(%rax), %edx	# this_2(D)->view_pos, tmp85
	movq	-8(%rbp), %rax	# this, tmp86
	movl	%edx, %esi	# tmp85,
	movq	%rax, %rdi	# tmp86,
	call	_ZN5World9view_moveE7POINT_T	#
# src/main.cc:757:     }
	nop	
	leave	
	.cfi_def_cfa 7, 8
	ret	
	.cfi_endproc
.LFE2910:
	.size	_ZN5World13set_view_sizeE7POINT_T, .-_ZN5World13set_view_sizeE7POINT_T
	.section	.text._ZN5World19toggle_cursor_valueEv,"axG",@progbits,_ZN5World19toggle_cursor_valueEv,comdat
	.align 2
	.weak	_ZN5World19toggle_cursor_valueEv
	.type	_ZN5World19toggle_cursor_valueEv, @function
_ZN5World19toggle_cursor_valueEv:
.LFB2911:
	.cfi_startproc
	.cfi_personality 0x9b,DW.ref.__gxx_personality_v0
	.cfi_lsda 0x1b,.LLSDA2911
	endbr64	
	pushq	%rbp	#
	.cfi_def_cfa_offset 16
	.cfi_offset 6, -16
	movq	%rsp, %rbp	#,
	.cfi_def_cfa_register 6
	pushq	%rbx	#
	subq	$56, %rsp	#,
	.cfi_offset 3, -24
	movq	%rdi, -56(%rbp)	# this, this
# src/main.cc:762:     void toggle_cursor_value(void) {
	movq	%fs:40, %rax	# MEM[(<address-space-1> long unsigned int *)40B], tmp126
	movq	%rax, -24(%rbp)	# tmp126, D.106023
	xorl	%eax, %eax	# tmp126
# src/main.cc:763:         const std::lock_guard<std::mutex> lock(mutex_world);
	movq	-56(%rbp), %rax	# this, tmp112
	leaq	96(%rax), %rdx	#, _1
# src/main.cc:763:         const std::lock_guard<std::mutex> lock(mutex_world);
	leaq	-32(%rbp), %rax	#, tmp113
	movq	%rdx, %rsi	# _1,
	movq	%rax, %rdi	# tmp113,
.LEHB23:
	call	_ZNSt10lock_guardISt5mutexEC1ERS0_	#
.LEHE23:
# src/main.cc:764:         const point_t cursor = get_pos_cursor_world();
	movq	-56(%rbp), %rax	# this, tmp114
	movq	%rax, %rdi	# tmp114,
	call	_ZN5World20get_pos_cursor_worldEv	#
	movl	%eax, -36(%rbp)	# tmp116, cursor
# src/main.cc:767:             !world->alive[cursor.y * world_size.x + cursor.x]);
	movq	-56(%rbp), %rax	# this, tmp117
	movq	24(%rax), %rax	# this_31(D)->world, _2
# src/main.cc:767:             !world->alive[cursor.y * world_size.x + cursor.x]);
	movq	(%rax), %rcx	# _2->alive, _3
# src/main.cc:767:             !world->alive[cursor.y * world_size.x + cursor.x]);
	movzwl	-36(%rbp), %eax	# cursor.y, _4
	movswl	%ax, %edx	# _4, _5
# src/main.cc:767:             !world->alive[cursor.y * world_size.x + cursor.x]);
	movq	-56(%rbp), %rax	# this, tmp118
	movzwl	34(%rax), %eax	# this_31(D)->world_size.x, _6
	cwtl
# src/main.cc:767:             !world->alive[cursor.y * world_size.x + cursor.x]);
	imull	%eax, %edx	# _7, _8
# src/main.cc:767:             !world->alive[cursor.y * world_size.x + cursor.x]);
	movzwl	-34(%rbp), %eax	# cursor.x, _9
	cwtl
# src/main.cc:767:             !world->alive[cursor.y * world_size.x + cursor.x]);
	addl	%edx, %eax	# _8, _11
	cltq
# src/main.cc:767:             !world->alive[cursor.y * world_size.x + cursor.x]);
	addq	%rcx, %rax	# _3, _13
	movzbl	(%rax), %eax	# *_13, _14
# src/main.cc:765:         world_set_cell(
	testb	%al, %al	# _14
	sete	%al	#, _15
	movzbl	%al, %edx	# _15, _16
# src/main.cc:766:             &world->alive[cursor.y * world_size.x + cursor.x],
	movq	-56(%rbp), %rax	# this, tmp119
	movq	24(%rax), %rax	# this_31(D)->world, _17
# src/main.cc:766:             &world->alive[cursor.y * world_size.x + cursor.x],
	movq	(%rax), %rsi	# _17->alive, _18
# src/main.cc:766:             &world->alive[cursor.y * world_size.x + cursor.x],
	movzwl	-36(%rbp), %eax	# cursor.y, _19
	movswl	%ax, %ecx	# _19, _20
# src/main.cc:766:             &world->alive[cursor.y * world_size.x + cursor.x],
	movq	-56(%rbp), %rax	# this, tmp120
	movzwl	34(%rax), %eax	# this_31(D)->world_size.x, _21
	cwtl
# src/main.cc:766:             &world->alive[cursor.y * world_size.x + cursor.x],
	imull	%eax, %ecx	# _22, _23
# src/main.cc:766:             &world->alive[cursor.y * world_size.x + cursor.x],
	movzwl	-34(%rbp), %eax	# cursor.x, _24
	cwtl
# src/main.cc:766:             &world->alive[cursor.y * world_size.x + cursor.x],
	addl	%ecx, %eax	# _23, _26
	cltq
# src/main.cc:765:         world_set_cell(
	leaq	(%rsi,%rax), %rcx	#, _28
	movq	-56(%rbp), %rax	# this, tmp121
	movq	%rcx, %rsi	# _28,
	movq	%rax, %rdi	# tmp121,
	call	_ZN5World14world_set_cellEPhb	#
# src/main.cc:768:         view->refresh_view();
	movq	-56(%rbp), %rax	# this, tmp122
	movq	72(%rax), %rax	# this_31(D)->view, _29
# src/main.cc:768:         view->refresh_view();
	movq	%rax, %rdi	# _29,
.LEHB24:
	call	_ZN4View12refresh_viewEv	#
.LEHE24:
# src/main.cc:769:     }
	leaq	-32(%rbp), %rax	#, tmp123
	movq	%rax, %rdi	# tmp123,
	call	_ZNSt10lock_guardISt5mutexED1Ev	#
	movq	-24(%rbp), %rax	# D.106023, tmp127
	subq	%fs:40, %rax	# MEM[(<address-space-1> long unsigned int *)40B], tmp127
	je	.L218	#,
	jmp	.L220	#
.L219:
	endbr64	
	movq	%rax, %rbx	#, tmp125
	leaq	-32(%rbp), %rax	#, tmp124
	movq	%rax, %rdi	# tmp124,
	call	_ZNSt10lock_guardISt5mutexED1Ev	#
	movq	%rbx, %rax	# tmp125, D.106022
	movq	%rax, %rdi	# D.106022,
.LEHB25:
	call	_Unwind_Resume@PLT	#
.LEHE25:
.L220:
	call	__stack_chk_fail@PLT	#
.L218:
	movq	-8(%rbp), %rbx	#,
	leave	
	.cfi_def_cfa 7, 8
	ret	
	.cfi_endproc
.LFE2911:
	.section	.gcc_except_table._ZN5World19toggle_cursor_valueEv,"aG",@progbits,_ZN5World19toggle_cursor_valueEv,comdat
.LLSDA2911:
	.byte	0xff
	.byte	0xff
	.byte	0x1
	.uleb128 .LLSDACSE2911-.LLSDACSB2911
.LLSDACSB2911:
	.uleb128 .LEHB23-.LFB2911
	.uleb128 .LEHE23-.LEHB23
	.uleb128 0
	.uleb128 0
	.uleb128 .LEHB24-.LFB2911
	.uleb128 .LEHE24-.LEHB24
	.uleb128 .L219-.LFB2911
	.uleb128 0
	.uleb128 .LEHB25-.LFB2911
	.uleb128 .LEHE25-.LEHB25
	.uleb128 0
	.uleb128 0
.LLSDACSE2911:
	.section	.text._ZN5World19toggle_cursor_valueEv,"axG",@progbits,_ZN5World19toggle_cursor_valueEv,comdat
	.size	_ZN5World19toggle_cursor_valueEv, .-_ZN5World19toggle_cursor_valueEv
	.section	.text._ZN5World15toggle_run_modeEv,"axG",@progbits,_ZN5World15toggle_run_modeEv,comdat
	.align 2
	.weak	_ZN5World15toggle_run_modeEv
	.type	_ZN5World15toggle_run_modeEv, @function
_ZN5World15toggle_run_modeEv:
.LFB2912:
	.cfi_startproc
	endbr64	
	pushq	%rbp	#
	.cfi_def_cfa_offset 16
	.cfi_offset 6, -16
	movq	%rsp, %rbp	#,
	.cfi_def_cfa_register 6
	movq	%rdi, -8(%rbp)	# this, this
# src/main.cc:775:         generations = 1;
	movq	-8(%rbp), %rax	# this, tmp84
	movl	$1, 88(%rax)	#, this_4(D)->generations
# src/main.cc:776:         run_auto = !run_auto;
	movq	-8(%rbp), %rax	# this, tmp85
	movzbl	92(%rax), %eax	# this_4(D)->run_auto, _1
# src/main.cc:776:         run_auto = !run_auto;
	xorl	$1, %eax	#, _1
	movl	%eax, %edx	# _1, _2
# src/main.cc:776:         run_auto = !run_auto;
	movq	-8(%rbp), %rax	# this, tmp86
	movb	%dl, 92(%rax)	# _2, this_4(D)->run_auto
# src/main.cc:777:     }
	nop	
	popq	%rbp	#
	.cfi_def_cfa 7, 8
	ret	
	.cfi_endproc
.LFE2912:
	.size	_ZN5World15toggle_run_modeEv, .-_ZN5World15toggle_run_modeEv
	.section	.text._ZN5World20get_pos_cursor_worldEv,"axG",@progbits,_ZN5World20get_pos_cursor_worldEv,comdat
	.align 2
	.weak	_ZN5World20get_pos_cursor_worldEv
	.type	_ZN5World20get_pos_cursor_worldEv, @function
_ZN5World20get_pos_cursor_worldEv:
.LFB2914:
	.cfi_startproc
	endbr64	
	pushq	%rbp	#
	.cfi_def_cfa_offset 16
	.cfi_offset 6, -16
	movq	%rsp, %rbp	#,
	.cfi_def_cfa_register 6
	pushq	%rbx	#
	subq	$40, %rsp	#,
	.cfi_offset 3, -24
	movq	%rdi, -40(%rbp)	# this, this
# src/main.cc:792:         const point_t cursor = view->get_pos_cursor_user();
	movq	-40(%rbp), %rax	# this, tmp97
	movq	72(%rax), %rax	# this_15(D)->view, _1
# src/main.cc:792:         const point_t cursor = view->get_pos_cursor_user();
	movq	%rax, %rdi	# _1,
	call	_ZN4View19get_pos_cursor_userEv	#
	movl	%eax, -20(%rbp)	# tmp99, cursor
# src/main.cc:794:             static_cast<int16_t>(view_pos.y + cursor.y),
	movq	-40(%rbp), %rax	# this, tmp100
	movzwl	64(%rax), %eax	# this_15(D)->view_pos.y, _2
	movl	%eax, %edx	# _2, _3
# src/main.cc:794:             static_cast<int16_t>(view_pos.y + cursor.y),
	movzwl	-20(%rbp), %eax	# cursor.y, _4
# src/main.cc:794:             static_cast<int16_t>(view_pos.y + cursor.y),
	addl	%edx, %eax	# _3, _6
# src/main.cc:796:         };
	movw	%ax, %bx	# _7, D.103304
# src/main.cc:795:             static_cast<int16_t>(view_pos.x + cursor.x),
	movq	-40(%rbp), %rax	# this, tmp101
	movzwl	66(%rax), %eax	# this_15(D)->view_pos.x, _8
	movl	%eax, %edx	# _8, _9
# src/main.cc:795:             static_cast<int16_t>(view_pos.x + cursor.x),
	movzwl	-18(%rbp), %eax	# cursor.x, _10
# src/main.cc:795:             static_cast<int16_t>(view_pos.x + cursor.x),
	addl	%edx, %eax	# _9, _12
# src/main.cc:796:         };
	movzwl	%ax, %eax	# _13, tmp102
	sall	$16, %eax	#, tmp102
	movl	%eax, %edx	# tmp102, tmp103
	movzwl	%bx, %eax	# D.103304, tmp104
	orl	%edx, %eax	# tmp103, tmp105
	movl	%eax, %ebx	# tmp105, D.103304
	movl	%ebx, %eax	# D.103304, <retval>
# src/main.cc:797:     }
	movq	-8(%rbp), %rbx	#,
	leave	
	.cfi_def_cfa 7, 8
	ret	
	.cfi_endproc
.LFE2914:
	.size	_ZN5World20get_pos_cursor_worldEv, .-_ZN5World20get_pos_cursor_worldEv
	.section	.text._ZN5World14cursor_move_upEv,"axG",@progbits,_ZN5World14cursor_move_upEv,comdat
	.align 2
	.weak	_ZN5World14cursor_move_upEv
	.type	_ZN5World14cursor_move_upEv, @function
_ZN5World14cursor_move_upEv:
.LFB2915:
	.cfi_startproc
	endbr64	
	pushq	%rbp	#
	.cfi_def_cfa_offset 16
	.cfi_offset 6, -16
	movq	%rsp, %rbp	#,
	.cfi_def_cfa_register 6
	pushq	%rbx	#
	subq	$24, %rsp	#,
	.cfi_offset 3, -24
	movq	%rdi, -24(%rbp)	# this, this
# src/main.cc:804:             {static_cast<int16_t>(view->get_pos_cursor_user().y + 1),
	movq	-24(%rbp), %rax	# this, tmp92
	movq	72(%rax), %rax	# this_9(D)->view, _1
# src/main.cc:804:             {static_cast<int16_t>(view->get_pos_cursor_user().y + 1),
	movq	%rax, %rdi	# _1,
	call	_ZN4View19get_pos_cursor_userEv	#
# src/main.cc:804:             {static_cast<int16_t>(view->get_pos_cursor_user().y + 1),
	addl	$1, %eax	#, _4
# src/main.cc:803:         set_cursor_pos(
	movw	%ax, %bx	# _5, D.103340
# src/main.cc:805:              view->get_pos_cursor_user().x});
	movq	-24(%rbp), %rax	# this, tmp93
	movq	72(%rax), %rax	# this_9(D)->view, _6
# src/main.cc:805:              view->get_pos_cursor_user().x});
	movq	%rax, %rdi	# _6,
	call	_ZN4View19get_pos_cursor_userEv	#
# src/main.cc:805:              view->get_pos_cursor_user().x});
	sarl	$16, %eax	#, tmp94
# src/main.cc:803:         set_cursor_pos(
	movzwl	%ax, %eax	# _7, tmp95
	sall	$16, %eax	#, tmp95
	movl	%eax, %edx	# tmp95, tmp96
	movzwl	%bx, %eax	# D.103340, tmp97
	orl	%edx, %eax	# tmp96, tmp98
	movl	%eax, %ebx	# tmp98, D.103340
	movq	-24(%rbp), %rax	# this, tmp99
	movl	%ebx, %esi	# D.103340,
	movq	%rax, %rdi	# tmp99,
	call	_ZN5World14set_cursor_posE7POINT_T	#
# src/main.cc:806:     }
	nop	
	movq	-8(%rbp), %rbx	#,
	leave	
	.cfi_def_cfa 7, 8
	ret	
	.cfi_endproc
.LFE2915:
	.size	_ZN5World14cursor_move_upEv, .-_ZN5World14cursor_move_upEv
	.section	.text._ZN5World16cursor_move_downEv,"axG",@progbits,_ZN5World16cursor_move_downEv,comdat
	.align 2
	.weak	_ZN5World16cursor_move_downEv
	.type	_ZN5World16cursor_move_downEv, @function
_ZN5World16cursor_move_downEv:
.LFB2916:
	.cfi_startproc
	endbr64	
	pushq	%rbp	#
	.cfi_def_cfa_offset 16
	.cfi_offset 6, -16
	movq	%rsp, %rbp	#,
	.cfi_def_cfa_register 6
	pushq	%rbx	#
	subq	$24, %rsp	#,
	.cfi_offset 3, -24
	movq	%rdi, -24(%rbp)	# this, this
# src/main.cc:813:             {static_cast<int16_t>(view->get_pos_cursor_user().y - 1),
	movq	-24(%rbp), %rax	# this, tmp92
	movq	72(%rax), %rax	# this_9(D)->view, _1
# src/main.cc:813:             {static_cast<int16_t>(view->get_pos_cursor_user().y - 1),
	movq	%rax, %rdi	# _1,
	call	_ZN4View19get_pos_cursor_userEv	#
# src/main.cc:813:             {static_cast<int16_t>(view->get_pos_cursor_user().y - 1),
	subl	$1, %eax	#, _4
# src/main.cc:812:         set_cursor_pos(
	movw	%ax, %bx	# _5, D.103354
# src/main.cc:814:              view->get_pos_cursor_user().x});
	movq	-24(%rbp), %rax	# this, tmp93
	movq	72(%rax), %rax	# this_9(D)->view, _6
# src/main.cc:814:              view->get_pos_cursor_user().x});
	movq	%rax, %rdi	# _6,
	call	_ZN4View19get_pos_cursor_userEv	#
# src/main.cc:814:              view->get_pos_cursor_user().x});
	sarl	$16, %eax	#, tmp94
# src/main.cc:812:         set_cursor_pos(
	movzwl	%ax, %eax	# _7, tmp95
	sall	$16, %eax	#, tmp95
	movl	%eax, %edx	# tmp95, tmp96
	movzwl	%bx, %eax	# D.103354, tmp97
	orl	%edx, %eax	# tmp96, tmp98
	movl	%eax, %ebx	# tmp98, D.103354
	movq	-24(%rbp), %rax	# this, tmp99
	movl	%ebx, %esi	# D.103354,
	movq	%rax, %rdi	# tmp99,
	call	_ZN5World14set_cursor_posE7POINT_T	#
# src/main.cc:815:     }
	nop	
	movq	-8(%rbp), %rbx	#,
	leave	
	.cfi_def_cfa 7, 8
	ret	
	.cfi_endproc
.LFE2916:
	.size	_ZN5World16cursor_move_downEv, .-_ZN5World16cursor_move_downEv
	.section	.text._ZN5World16cursor_move_leftEv,"axG",@progbits,_ZN5World16cursor_move_leftEv,comdat
	.align 2
	.weak	_ZN5World16cursor_move_leftEv
	.type	_ZN5World16cursor_move_leftEv, @function
_ZN5World16cursor_move_leftEv:
.LFB2917:
	.cfi_startproc
	endbr64	
	pushq	%rbp	#
	.cfi_def_cfa_offset 16
	.cfi_offset 6, -16
	movq	%rsp, %rbp	#,
	.cfi_def_cfa_register 6
	pushq	%rbx	#
	subq	$24, %rsp	#,
	.cfi_offset 3, -24
	movq	%rdi, -24(%rbp)	# this, this
# src/main.cc:821:         set_cursor_pos({view->get_pos_cursor_user().y,
	movq	-24(%rbp), %rax	# this, tmp92
	movq	72(%rax), %rax	# this_9(D)->view, _1
# src/main.cc:821:         set_cursor_pos({view->get_pos_cursor_user().y,
	movq	%rax, %rdi	# _1,
	call	_ZN4View19get_pos_cursor_userEv	#
# src/main.cc:821:         set_cursor_pos({view->get_pos_cursor_user().y,
	movw	%ax, %bx	# _2, D.103355
# src/main.cc:823:                             view->get_pos_cursor_user().x - 1)});
	movq	-24(%rbp), %rax	# this, tmp93
	movq	72(%rax), %rax	# this_9(D)->view, _3
# src/main.cc:823:                             view->get_pos_cursor_user().x - 1)});
	movq	%rax, %rdi	# _3,
	call	_ZN4View19get_pos_cursor_userEv	#
# src/main.cc:823:                             view->get_pos_cursor_user().x - 1)});
	sarl	$16, %eax	#, tmp94
# src/main.cc:823:                             view->get_pos_cursor_user().x - 1)});
	subl	$1, %eax	#, _6
# src/main.cc:821:         set_cursor_pos({view->get_pos_cursor_user().y,
	movzwl	%ax, %eax	# _7, tmp95
	sall	$16, %eax	#, tmp95
	movl	%eax, %edx	# tmp95, tmp96
	movzwl	%bx, %eax	# D.103355, tmp97
	orl	%edx, %eax	# tmp96, tmp98
	movl	%eax, %ebx	# tmp98, D.103355
	movq	-24(%rbp), %rax	# this, tmp99
	movl	%ebx, %esi	# D.103355,
	movq	%rax, %rdi	# tmp99,
	call	_ZN5World14set_cursor_posE7POINT_T	#
# src/main.cc:824:     }
	nop	
	movq	-8(%rbp), %rbx	#,
	leave	
	.cfi_def_cfa 7, 8
	ret	
	.cfi_endproc
.LFE2917:
	.size	_ZN5World16cursor_move_leftEv, .-_ZN5World16cursor_move_leftEv
	.section	.text._ZN5World17cursor_move_rightEv,"axG",@progbits,_ZN5World17cursor_move_rightEv,comdat
	.align 2
	.weak	_ZN5World17cursor_move_rightEv
	.type	_ZN5World17cursor_move_rightEv, @function
_ZN5World17cursor_move_rightEv:
.LFB2918:
	.cfi_startproc
	endbr64	
	pushq	%rbp	#
	.cfi_def_cfa_offset 16
	.cfi_offset 6, -16
	movq	%rsp, %rbp	#,
	.cfi_def_cfa_register 6
	pushq	%rbx	#
	subq	$24, %rsp	#,
	.cfi_offset 3, -24
	movq	%rdi, -24(%rbp)	# this, this
# src/main.cc:830:         set_cursor_pos({view->get_pos_cursor_user().y,
	movq	-24(%rbp), %rax	# this, tmp92
	movq	72(%rax), %rax	# this_9(D)->view, _1
# src/main.cc:830:         set_cursor_pos({view->get_pos_cursor_user().y,
	movq	%rax, %rdi	# _1,
	call	_ZN4View19get_pos_cursor_userEv	#
# src/main.cc:830:         set_cursor_pos({view->get_pos_cursor_user().y,
	movw	%ax, %bx	# _2, D.103356
# src/main.cc:832:                             view->get_pos_cursor_user().x + 1)});
	movq	-24(%rbp), %rax	# this, tmp93
	movq	72(%rax), %rax	# this_9(D)->view, _3
# src/main.cc:832:                             view->get_pos_cursor_user().x + 1)});
	movq	%rax, %rdi	# _3,
	call	_ZN4View19get_pos_cursor_userEv	#
# src/main.cc:832:                             view->get_pos_cursor_user().x + 1)});
	sarl	$16, %eax	#, tmp94
# src/main.cc:832:                             view->get_pos_cursor_user().x + 1)});
	addl	$1, %eax	#, _6
# src/main.cc:830:         set_cursor_pos({view->get_pos_cursor_user().y,
	movzwl	%ax, %eax	# _7, tmp95
	sall	$16, %eax	#, tmp95
	movl	%eax, %edx	# tmp95, tmp96
	movzwl	%bx, %eax	# D.103356, tmp97
	orl	%edx, %eax	# tmp96, tmp98
	movl	%eax, %ebx	# tmp98, D.103356
	movq	-24(%rbp), %rax	# this, tmp99
	movl	%ebx, %esi	# D.103356,
	movq	%rax, %rdi	# tmp99,
	call	_ZN5World14set_cursor_posE7POINT_T	#
# src/main.cc:833:     }
	nop	
	movq	-8(%rbp), %rbx	#,
	leave	
	.cfi_def_cfa 7, 8
	ret	
	.cfi_endproc
.LFE2918:
	.size	_ZN5World17cursor_move_rightEv, .-_ZN5World17cursor_move_rightEv
	.section	.text._ZN5World12view_move_upEv,"axG",@progbits,_ZN5World12view_move_upEv,comdat
	.align 2
	.weak	_ZN5World12view_move_upEv
	.type	_ZN5World12view_move_upEv, @function
_ZN5World12view_move_upEv:
.LFB2919:
	.cfi_startproc
	endbr64	
	pushq	%rbp	#
	.cfi_def_cfa_offset 16
	.cfi_offset 6, -16
	movq	%rsp, %rbp	#,
	.cfi_def_cfa_register 6
	subq	$16, %rsp	#,
	movq	%rdi, -8(%rbp)	# this, this
# src/main.cc:840:             {static_cast<int16_t>(view_pos.y - view_step_size.y),
	movq	-8(%rbp), %rdx	# this, tmp90
	movzwl	64(%rdx), %edx	# this_9(D)->view_pos.y, _1
	movl	%edx, %ecx	# _1, _2
# src/main.cc:840:             {static_cast<int16_t>(view_pos.y - view_step_size.y),
	movq	-8(%rbp), %rdx	# this, tmp91
	movzwl	60(%rdx), %edx	# this_9(D)->view_step_size.y, _3
	movl	%edx, %esi	# _3, _4
# src/main.cc:840:             {static_cast<int16_t>(view_pos.y - view_step_size.y),
	subl	%esi, %ecx	# _4, _2
	movl	%ecx, %edx	# _2, _5
# src/main.cc:839:         view_move(
	movw	%dx, %ax	# _6, D.103360
# src/main.cc:841:              view_pos.x});
	movq	-8(%rbp), %rdx	# this, tmp92
	movzwl	66(%rdx), %edx	# this_9(D)->view_pos.x, _7
# src/main.cc:839:         view_move(
	movzwl	%dx, %edx	# _7, tmp93
	sall	$16, %edx	#, tmp94
	movzwl	%ax, %eax	# D.103360, tmp95
	orl	%edx, %eax	# tmp94, tmp96
	movq	-8(%rbp), %rdx	# this, tmp97
	movl	%eax, %esi	# D.103360,
	movq	%rdx, %rdi	# tmp97,
	call	_ZN5World9view_moveE7POINT_T	#
# src/main.cc:842:     }
	nop	
	leave	
	.cfi_def_cfa 7, 8
	ret	
	.cfi_endproc
.LFE2919:
	.size	_ZN5World12view_move_upEv, .-_ZN5World12view_move_upEv
	.section	.text._ZN5World14view_move_downEv,"axG",@progbits,_ZN5World14view_move_downEv,comdat
	.align 2
	.weak	_ZN5World14view_move_downEv
	.type	_ZN5World14view_move_downEv, @function
_ZN5World14view_move_downEv:
.LFB2920:
	.cfi_startproc
	endbr64	
	pushq	%rbp	#
	.cfi_def_cfa_offset 16
	.cfi_offset 6, -16
	movq	%rsp, %rbp	#,
	.cfi_def_cfa_register 6
	subq	$16, %rsp	#,
	movq	%rdi, -8(%rbp)	# this, this
# src/main.cc:849:             {static_cast<int16_t>(view_pos.y + view_step_size.y),
	movq	-8(%rbp), %rdx	# this, tmp90
	movzwl	64(%rdx), %edx	# this_9(D)->view_pos.y, _1
	movl	%edx, %ecx	# _1, _2
# src/main.cc:849:             {static_cast<int16_t>(view_pos.y + view_step_size.y),
	movq	-8(%rbp), %rdx	# this, tmp91
	movzwl	60(%rdx), %edx	# this_9(D)->view_step_size.y, _3
# src/main.cc:849:             {static_cast<int16_t>(view_pos.y + view_step_size.y),
	addl	%ecx, %edx	# _2, _5
# src/main.cc:848:         view_move(
	movw	%dx, %ax	# _6, D.103361
# src/main.cc:850:              view_pos.x});
	movq	-8(%rbp), %rdx	# this, tmp92
	movzwl	66(%rdx), %edx	# this_9(D)->view_pos.x, _7
# src/main.cc:848:         view_move(
	movzwl	%dx, %edx	# _7, tmp93
	sall	$16, %edx	#, tmp94
	movzwl	%ax, %eax	# D.103361, tmp95
	orl	%edx, %eax	# tmp94, tmp96
	movq	-8(%rbp), %rdx	# this, tmp97
	movl	%eax, %esi	# D.103361,
	movq	%rdx, %rdi	# tmp97,
	call	_ZN5World9view_moveE7POINT_T	#
# src/main.cc:851:     }
	nop	
	leave	
	.cfi_def_cfa 7, 8
	ret	
	.cfi_endproc
.LFE2920:
	.size	_ZN5World14view_move_downEv, .-_ZN5World14view_move_downEv
	.section	.text._ZN5World14view_move_leftEv,"axG",@progbits,_ZN5World14view_move_leftEv,comdat
	.align 2
	.weak	_ZN5World14view_move_leftEv
	.type	_ZN5World14view_move_leftEv, @function
_ZN5World14view_move_leftEv:
.LFB2921:
	.cfi_startproc
	endbr64	
	pushq	%rbp	#
	.cfi_def_cfa_offset 16
	.cfi_offset 6, -16
	movq	%rsp, %rbp	#,
	.cfi_def_cfa_register 6
	subq	$16, %rsp	#,
	movq	%rdi, -8(%rbp)	# this, this
# src/main.cc:857:         view_move({view_pos.y, static_cast<int16_t>(
	movq	-8(%rbp), %rdx	# this, tmp90
	movzwl	64(%rdx), %edx	# this_9(D)->view_pos.y, _1
# src/main.cc:857:         view_move({view_pos.y, static_cast<int16_t>(
	movw	%dx, %ax	# _1, D.103357
# src/main.cc:858:                                    view_pos.x - view_step_size.x)});
	movq	-8(%rbp), %rdx	# this, tmp91
	movzwl	66(%rdx), %edx	# this_9(D)->view_pos.x, _2
	movl	%edx, %ecx	# _2, _3
# src/main.cc:858:                                    view_pos.x - view_step_size.x)});
	movq	-8(%rbp), %rdx	# this, tmp92
	movzwl	62(%rdx), %edx	# this_9(D)->view_step_size.x, _4
	movl	%edx, %esi	# _4, _5
# src/main.cc:858:                                    view_pos.x - view_step_size.x)});
	subl	%esi, %ecx	# _5, _3
	movl	%ecx, %edx	# _3, _6
# src/main.cc:857:         view_move({view_pos.y, static_cast<int16_t>(
	movzwl	%dx, %edx	# _7, tmp93
	sall	$16, %edx	#, tmp94
	movzwl	%ax, %eax	# D.103357, tmp95
	orl	%edx, %eax	# tmp94, tmp96
	movq	-8(%rbp), %rdx	# this, tmp97
	movl	%eax, %esi	# D.103357,
	movq	%rdx, %rdi	# tmp97,
	call	_ZN5World9view_moveE7POINT_T	#
# src/main.cc:859:     }
	nop	
	leave	
	.cfi_def_cfa 7, 8
	ret	
	.cfi_endproc
.LFE2921:
	.size	_ZN5World14view_move_leftEv, .-_ZN5World14view_move_leftEv
	.section	.text._ZN5World15view_move_rightEv,"axG",@progbits,_ZN5World15view_move_rightEv,comdat
	.align 2
	.weak	_ZN5World15view_move_rightEv
	.type	_ZN5World15view_move_rightEv, @function
_ZN5World15view_move_rightEv:
.LFB2922:
	.cfi_startproc
	endbr64	
	pushq	%rbp	#
	.cfi_def_cfa_offset 16
	.cfi_offset 6, -16
	movq	%rsp, %rbp	#,
	.cfi_def_cfa_register 6
	subq	$16, %rsp	#,
	movq	%rdi, -8(%rbp)	# this, this
# src/main.cc:865:         view_move({view_pos.y, static_cast<int16_t>(
	movq	-8(%rbp), %rdx	# this, tmp90
	movzwl	64(%rdx), %edx	# this_9(D)->view_pos.y, _1
# src/main.cc:865:         view_move({view_pos.y, static_cast<int16_t>(
	movw	%dx, %ax	# _1, D.103359
# src/main.cc:866:                                    view_pos.x + view_step_size.x)});
	movq	-8(%rbp), %rdx	# this, tmp91
	movzwl	66(%rdx), %edx	# this_9(D)->view_pos.x, _2
	movl	%edx, %ecx	# _2, _3
# src/main.cc:866:                                    view_pos.x + view_step_size.x)});
	movq	-8(%rbp), %rdx	# this, tmp92
	movzwl	62(%rdx), %edx	# this_9(D)->view_step_size.x, _4
# src/main.cc:866:                                    view_pos.x + view_step_size.x)});
	addl	%ecx, %edx	# _3, _6
# src/main.cc:865:         view_move({view_pos.y, static_cast<int16_t>(
	movzwl	%dx, %edx	# _7, tmp93
	sall	$16, %edx	#, tmp94
	movzwl	%ax, %eax	# D.103359, tmp95
	orl	%edx, %eax	# tmp94, tmp96
	movq	-8(%rbp), %rdx	# this, tmp97
	movl	%eax, %esi	# D.103359,
	movq	%rdx, %rdi	# tmp97,
	call	_ZN5World9view_moveE7POINT_T	#
# src/main.cc:867:     }
	nop	
	leave	
	.cfi_def_cfa 7, 8
	ret	
	.cfi_endproc
.LFE2922:
	.size	_ZN5World15view_move_rightEv, .-_ZN5World15view_move_rightEv
	.section	.text._ZN5World18view_refresh_inputEv,"axG",@progbits,_ZN5World18view_refresh_inputEv,comdat
	.align 2
	.weak	_ZN5World18view_refresh_inputEv
	.type	_ZN5World18view_refresh_inputEv, @function
_ZN5World18view_refresh_inputEv:
.LFB2923:
	.cfi_startproc
	endbr64	
	pushq	%rbp	#
	.cfi_def_cfa_offset 16
	.cfi_offset 6, -16
	movq	%rsp, %rbp	#,
	.cfi_def_cfa_register 6
	subq	$16, %rsp	#,
	movq	%rdi, -8(%rbp)	# this, this
# src/main.cc:872:     void view_refresh_input(void) { view->refresh_input(); }
	movq	-8(%rbp), %rax	# this, tmp83
	movq	72(%rax), %rax	# this_3(D)->view, _1
# src/main.cc:872:     void view_refresh_input(void) { view->refresh_input(); }
	movq	%rax, %rdi	# _1,
	call	_ZN4View13refresh_inputEv	#
# src/main.cc:872:     void view_refresh_input(void) { view->refresh_input(); }
	nop	
	leave	
	.cfi_def_cfa 7, 8
	ret	
	.cfi_endproc
.LFE2923:
	.size	_ZN5World18view_refresh_inputEv, .-_ZN5World18view_refresh_inputEv
	.section	.text._ZN5World10view_resetEv,"axG",@progbits,_ZN5World10view_resetEv,comdat
	.align 2
	.weak	_ZN5World10view_resetEv
	.type	_ZN5World10view_resetEv, @function
_ZN5World10view_resetEv:
.LFB2924:
	.cfi_startproc
	endbr64	
	pushq	%rbp	#
	.cfi_def_cfa_offset 16
	.cfi_offset 6, -16
	movq	%rsp, %rbp	#,
	.cfi_def_cfa_register 6
	subq	$16, %rsp	#,
	movq	%rdi, -8(%rbp)	# this, this
# src/main.cc:878:         view_move(view_pos);
	movq	-8(%rbp), %rax	# this, tmp86
	movl	64(%rax), %edx	# this_6(D)->view_pos, tmp87
	movq	-8(%rbp), %rax	# this, tmp88
	movl	%edx, %esi	# tmp87,
	movq	%rax, %rdi	# tmp88,
	call	_ZN5World9view_moveE7POINT_T	#
# src/main.cc:879:         view->reset();
	movq	-8(%rbp), %rax	# this, tmp89
	movq	72(%rax), %rax	# this_6(D)->view, _1
# src/main.cc:879:         view->reset();
	movq	%rax, %rdi	# _1,
	call	_ZN4View5resetEv	#
# src/main.cc:880:         view->draw_frame();
	movq	-8(%rbp), %rax	# this, tmp90
	movq	72(%rax), %rax	# this_6(D)->view, _2
# src/main.cc:880:         view->draw_frame();
	movq	%rax, %rdi	# _2,
	call	_ZN4View10draw_frameEv	#
# src/main.cc:881:         view->refresh_info();
	movq	-8(%rbp), %rax	# this, tmp91
	movq	72(%rax), %rax	# this_6(D)->view, _3
# src/main.cc:881:         view->refresh_info();
	movq	%rax, %rdi	# _3,
	call	_ZN4View12refresh_infoEv	#
# src/main.cc:882:         view->refresh_view();
	movq	-8(%rbp), %rax	# this, tmp92
	movq	72(%rax), %rax	# this_6(D)->view, _4
# src/main.cc:882:         view->refresh_view();
	movq	%rax, %rdi	# _4,
	call	_ZN4View12refresh_viewEv	#
# src/main.cc:883:     }
	nop	
	leave	
	.cfi_def_cfa 7, 8
	ret	
	.cfi_endproc
.LFE2924:
	.size	_ZN5World10view_resetEv, .-_ZN5World10view_resetEv
	.section	.text._ZN5World14world_set_cellE7POINT_Th,"axG",@progbits,_ZN5World14world_set_cellE7POINT_Th,comdat
	.align 2
	.weak	_ZN5World14world_set_cellE7POINT_Th
	.type	_ZN5World14world_set_cellE7POINT_Th, @function
_ZN5World14world_set_cellE7POINT_Th:
.LFB2925:
	.cfi_startproc
	endbr64	
	pushq	%rbp	#
	.cfi_def_cfa_offset 16
	.cfi_offset 6, -16
	movq	%rsp, %rbp	#,
	.cfi_def_cfa_register 6
	subq	$16, %rsp	#,
	movq	%rdi, -8(%rbp)	# this, this
	movl	%esi, -12(%rbp)	# p, p
	movl	%edx, %eax	# value, tmp100
	movb	%al, -16(%rbp)	# tmp101, value
# src/main.cc:891:         if (p.x < world_size.x && p.y < world_size.y) {
	movzwl	-10(%rbp), %edx	# p.x, _1
# src/main.cc:891:         if (p.x < world_size.x && p.y < world_size.y) {
	movq	-8(%rbp), %rax	# this, tmp102
	movzwl	34(%rax), %eax	# this_21(D)->world_size.x, _2
# src/main.cc:891:         if (p.x < world_size.x && p.y < world_size.y) {
	cmpw	%ax, %dx	# _2, _1
	jge	.L236	#,
# src/main.cc:891:         if (p.x < world_size.x && p.y < world_size.y) {
	movzwl	-12(%rbp), %edx	# p.y, _3
# src/main.cc:891:         if (p.x < world_size.x && p.y < world_size.y) {
	movq	-8(%rbp), %rax	# this, tmp103
	movzwl	32(%rax), %eax	# this_21(D)->world_size.y, _4
# src/main.cc:891:         if (p.x < world_size.x && p.y < world_size.y) {
	cmpw	%ax, %dx	# _4, _3
	jge	.L236	#,
# src/main.cc:892:             world_set_cell(&world->alive[p.y * world_size.x + p.x],
	cmpb	$0, -16(%rbp)	#, value
	setne	%al	#, _5
	movzbl	%al, %edx	# _5, _6
# src/main.cc:892:             world_set_cell(&world->alive[p.y * world_size.x + p.x],
	movq	-8(%rbp), %rax	# this, tmp104
	movq	24(%rax), %rax	# this_21(D)->world, _7
# src/main.cc:892:             world_set_cell(&world->alive[p.y * world_size.x + p.x],
	movq	(%rax), %rsi	# _7->alive, _8
# src/main.cc:892:             world_set_cell(&world->alive[p.y * world_size.x + p.x],
	movzwl	-12(%rbp), %eax	# p.y, _9
	movswl	%ax, %ecx	# _9, _10
# src/main.cc:892:             world_set_cell(&world->alive[p.y * world_size.x + p.x],
	movq	-8(%rbp), %rax	# this, tmp105
	movzwl	34(%rax), %eax	# this_21(D)->world_size.x, _11
	cwtl
# src/main.cc:892:             world_set_cell(&world->alive[p.y * world_size.x + p.x],
	imull	%eax, %ecx	# _12, _13
# src/main.cc:892:             world_set_cell(&world->alive[p.y * world_size.x + p.x],
	movzwl	-10(%rbp), %eax	# p.x, _14
	cwtl
# src/main.cc:892:             world_set_cell(&world->alive[p.y * world_size.x + p.x],
	addl	%ecx, %eax	# _13, _16
	cltq
# src/main.cc:892:             world_set_cell(&world->alive[p.y * world_size.x + p.x],
	leaq	(%rsi,%rax), %rcx	#, _18
	movq	-8(%rbp), %rax	# this, tmp106
	movq	%rcx, %rsi	# _18,
	movq	%rax, %rdi	# tmp106,
	call	_ZN5World14world_set_cellEPhb	#
.L236:
# src/main.cc:895:     }
	nop	
	leave	
	.cfi_def_cfa 7, 8
	ret	
	.cfi_endproc
.LFE2925:
	.size	_ZN5World14world_set_cellE7POINT_Th, .-_ZN5World14world_set_cellE7POINT_Th
	.section	.text._ZN5World14world_get_cellE7POINT_T,"axG",@progbits,_ZN5World14world_get_cellE7POINT_T,comdat
	.align 2
	.weak	_ZN5World14world_get_cellE7POINT_T
	.type	_ZN5World14world_get_cellE7POINT_T, @function
_ZN5World14world_get_cellE7POINT_T:
.LFB2926:
	.cfi_startproc
	endbr64	
	pushq	%rbp	#
	.cfi_def_cfa_offset 16
	.cfi_offset 6, -16
	movq	%rsp, %rbp	#,
	.cfi_def_cfa_register 6
	movq	%rdi, -8(%rbp)	# this, this
	movl	%esi, -12(%rbp)	# p, p
# src/main.cc:904:         if (p.x < world_size.x && p.y < world_size.y) {
	movzwl	-10(%rbp), %edx	# p.x, _1
# src/main.cc:904:         if (p.x < world_size.x && p.y < world_size.y) {
	movq	-8(%rbp), %rax	# this, tmp99
	movzwl	34(%rax), %eax	# this_18(D)->world_size.x, _2
# src/main.cc:904:         if (p.x < world_size.x && p.y < world_size.y) {
	cmpw	%ax, %dx	# _2, _1
	jge	.L238	#,
# src/main.cc:904:         if (p.x < world_size.x && p.y < world_size.y) {
	movzwl	-12(%rbp), %edx	# p.y, _3
# src/main.cc:904:         if (p.x < world_size.x && p.y < world_size.y) {
	movq	-8(%rbp), %rax	# this, tmp100
	movzwl	32(%rax), %eax	# this_18(D)->world_size.y, _4
# src/main.cc:904:         if (p.x < world_size.x && p.y < world_size.y) {
	cmpw	%ax, %dx	# _4, _3
	jge	.L238	#,
# src/main.cc:905:             return &world->alive[p.y * world_size.x + p.x];
	movq	-8(%rbp), %rax	# this, tmp101
	movq	24(%rax), %rax	# this_18(D)->world, _5
# src/main.cc:905:             return &world->alive[p.y * world_size.x + p.x];
	movq	(%rax), %rcx	# _5->alive, _6
# src/main.cc:905:             return &world->alive[p.y * world_size.x + p.x];
	movzwl	-12(%rbp), %eax	# p.y, _7
	movswl	%ax, %edx	# _7, _8
# src/main.cc:905:             return &world->alive[p.y * world_size.x + p.x];
	movq	-8(%rbp), %rax	# this, tmp102
	movzwl	34(%rax), %eax	# this_18(D)->world_size.x, _9
	cwtl
# src/main.cc:905:             return &world->alive[p.y * world_size.x + p.x];
	imull	%eax, %edx	# _10, _11
# src/main.cc:905:             return &world->alive[p.y * world_size.x + p.x];
	movzwl	-10(%rbp), %eax	# p.x, _12
	cwtl
# src/main.cc:905:             return &world->alive[p.y * world_size.x + p.x];
	addl	%edx, %eax	# _11, _14
	cltq
# src/main.cc:905:             return &world->alive[p.y * world_size.x + p.x];
	addq	%rcx, %rax	# _6, _16
	jmp	.L239	#
.L238:
# src/main.cc:907:         return NULL;
	movl	$0, %eax	#, _16
.L239:
# src/main.cc:908:     }
	popq	%rbp	#
	.cfi_def_cfa 7, 8
	ret	
	.cfi_endproc
.LFE2926:
	.size	_ZN5World14world_get_cellE7POINT_T, .-_ZN5World14world_get_cellE7POINT_T
	.section	.text._ZN5World18infest_random_viewEj,"axG",@progbits,_ZN5World18infest_random_viewEj,comdat
	.align 2
	.weak	_ZN5World18infest_random_viewEj
	.type	_ZN5World18infest_random_viewEj, @function
_ZN5World18infest_random_viewEj:
.LFB2927:
	.cfi_startproc
	endbr64	
	pushq	%rbp	#
	.cfi_def_cfa_offset 16
	.cfi_offset 6, -16
	movq	%rsp, %rbp	#,
	.cfi_def_cfa_register 6
	subq	$16, %rsp	#,
	movq	%rdi, -8(%rbp)	# this, this
	movl	%esi, -12(%rbp)	# cells, cells
# src/main.cc:916:         infest_random(view_pos, view_size,
	cmpl	$0, -12(%rbp)	#, cells
	jne	.L241	#,
# src/main.cc:916:         infest_random(view_pos, view_size,
	movq	-8(%rbp), %rax	# this, tmp83
	movl	4(%rax), %eax	# this_5(D)->infest_cell_view, iftmp.46_1
	jmp	.L242	#
.L241:
# src/main.cc:916:         infest_random(view_pos, view_size,
	movl	-12(%rbp), %eax	# cells, iftmp.46_1
.L242:
# src/main.cc:916:         infest_random(view_pos, view_size,
	movq	-8(%rbp), %rdx	# this, tmp84
	movl	56(%rdx), %edx	# this_5(D)->view_size, tmp85
	movq	-8(%rbp), %rcx	# this, tmp86
	movl	64(%rcx), %esi	# this_5(D)->view_pos, tmp87
	movq	-8(%rbp), %rdi	# this, tmp88
	movl	%eax, %ecx	# iftmp.46_1,
	call	_ZN5World13infest_randomE7POINT_TS0_j	#
# src/main.cc:918:     }
	nop	
	leave	
	.cfi_def_cfa 7, 8
	ret	
	.cfi_endproc
.LFE2927:
	.size	_ZN5World18infest_random_viewEj, .-_ZN5World18infest_random_viewEj
	.section	.text._ZN5World19infest_random_worldEj,"axG",@progbits,_ZN5World19infest_random_worldEj,comdat
	.align 2
	.weak	_ZN5World19infest_random_worldEj
	.type	_ZN5World19infest_random_worldEj, @function
_ZN5World19infest_random_worldEj:
.LFB2928:
	.cfi_startproc
	endbr64	
	pushq	%rbp	#
	.cfi_def_cfa_offset 16
	.cfi_offset 6, -16
	movq	%rsp, %rbp	#,
	.cfi_def_cfa_register 6
	subq	$16, %rsp	#,
	movq	%rdi, -8(%rbp)	# this, this
	movl	%esi, -12(%rbp)	# cells, cells
# src/main.cc:926:         infest_random(point_t{1, 1},
	cmpl	$0, -12(%rbp)	#, cells
	jne	.L244	#,
# src/main.cc:926:         infest_random(point_t{1, 1},
	movq	-8(%rbp), %rcx	# this, tmp93
	movl	8(%rcx), %ecx	# this_13(D)->infest_cell_world, iftmp.44_9
	jmp	.L245	#
.L244:
# src/main.cc:926:         infest_random(point_t{1, 1},
	movl	-12(%rbp), %ecx	# cells, iftmp.44_9
.L245:
# src/main.cc:927:                       {static_cast<int16_t>(world_size.x - 2),
	movq	-8(%rbp), %rsi	# this, tmp94
	movzwl	34(%rsi), %esi	# this_13(D)->world_size.x, _1
# src/main.cc:927:                       {static_cast<int16_t>(world_size.x - 2),
	subl	$2, %esi	#, _3
# src/main.cc:926:         infest_random(point_t{1, 1},
	movw	%si, %dx	# _4, D.103846
# src/main.cc:928:                        static_cast<int16_t>(world_size.y - 2)},
	movq	-8(%rbp), %rsi	# this, tmp95
	movzwl	32(%rsi), %esi	# this_13(D)->world_size.y, _5
# src/main.cc:928:                        static_cast<int16_t>(world_size.y - 2)},
	subl	$2, %esi	#, _7
# src/main.cc:926:         infest_random(point_t{1, 1},
	movzwl	%si, %esi	# _8, tmp96
	sall	$16, %esi	#, tmp97
	movzwl	%dx, %edx	# D.103846, tmp98
	orl	%esi, %edx	# tmp97, tmp99
	movw	$1, %ax	#, D.103847
	movzwl	%ax, %eax	# D.103847, tmp101
	orl	$65536, %eax	#, tmp102
	movq	-8(%rbp), %rdi	# this, tmp103
	movl	%eax, %esi	# D.103847,
	call	_ZN5World13infest_randomE7POINT_TS0_j	#
# src/main.cc:930:     }
	nop	
	leave	
	.cfi_def_cfa 7, 8
	ret	
	.cfi_endproc
.LFE2928:
	.size	_ZN5World19infest_random_worldEj, .-_ZN5World19infest_random_worldEj
	.section	.text._ZN5World11clear_worldEv,"axG",@progbits,_ZN5World11clear_worldEv,comdat
	.align 2
	.weak	_ZN5World11clear_worldEv
	.type	_ZN5World11clear_worldEv, @function
_ZN5World11clear_worldEv:
.LFB2929:
	.cfi_startproc
	endbr64	
	pushq	%rbp	#
	.cfi_def_cfa_offset 16
	.cfi_offset 6, -16
	movq	%rsp, %rbp	#,
	.cfi_def_cfa_register 6
	subq	$16, %rsp	#,
	movq	%rdi, -8(%rbp)	# this, this
# src/main.cc:937:                     {static_cast<int16_t>(world_size.x - 2),
	movq	-8(%rbp), %rcx	# this, tmp92
	movzwl	34(%rcx), %ecx	# this_10(D)->world_size.x, _1
# src/main.cc:937:                     {static_cast<int16_t>(world_size.x - 2),
	subl	$2, %ecx	#, _3
# src/main.cc:936:         world_clear(point_t{1, 1},
	movw	%cx, %dx	# _4, D.103406
# src/main.cc:938:                      static_cast<int16_t>(world_size.y - 2)});
	movq	-8(%rbp), %rcx	# this, tmp93
	movzwl	32(%rcx), %ecx	# this_10(D)->world_size.y, _5
# src/main.cc:938:                      static_cast<int16_t>(world_size.y - 2)});
	subl	$2, %ecx	#, _7
# src/main.cc:936:         world_clear(point_t{1, 1},
	movzwl	%cx, %ecx	# _8, tmp94
	sall	$16, %ecx	#, tmp95
	movzwl	%dx, %edx	# D.103406, tmp96
	orl	%ecx, %edx	# tmp95, tmp97
	movw	$1, %ax	#, D.103407
	movzwl	%ax, %eax	# D.103407, tmp99
	orl	$65536, %eax	#, tmp100
	movq	-8(%rbp), %rcx	# this, tmp101
	movl	%eax, %esi	# D.103407,
	movq	%rcx, %rdi	# tmp101,
	call	_ZN5World11world_clearE7POINT_TS0_	#
# src/main.cc:939:     }
	nop	
	leave	
	.cfi_def_cfa 7, 8
	ret	
	.cfi_endproc
.LFE2929:
	.size	_ZN5World11clear_worldEv, .-_ZN5World11clear_worldEv
	.section	.text._ZN5World10clear_viewEv,"axG",@progbits,_ZN5World10clear_viewEv,comdat
	.align 2
	.weak	_ZN5World10clear_viewEv
	.type	_ZN5World10clear_viewEv, @function
_ZN5World10clear_viewEv:
.LFB2930:
	.cfi_startproc
	endbr64	
	pushq	%rbp	#
	.cfi_def_cfa_offset 16
	.cfi_offset 6, -16
	movq	%rsp, %rbp	#,
	.cfi_def_cfa_register 6
	subq	$16, %rsp	#,
	movq	%rdi, -8(%rbp)	# this, this
# src/main.cc:944:     void clear_view(void) { world_clear(view_pos, view_size); }
	movq	-8(%rbp), %rax	# this, tmp82
	movl	56(%rax), %edx	# this_2(D)->view_size, tmp83
	movq	-8(%rbp), %rax	# this, tmp84
	movl	64(%rax), %ecx	# this_2(D)->view_pos, tmp85
	movq	-8(%rbp), %rax	# this, tmp86
	movl	%ecx, %esi	# tmp85,
	movq	%rax, %rdi	# tmp86,
	call	_ZN5World11world_clearE7POINT_TS0_	#
# src/main.cc:944:     void clear_view(void) { world_clear(view_pos, view_size); }
	nop	
	leave	
	.cfi_def_cfa 7, 8
	ret	
	.cfi_endproc
.LFE2930:
	.size	_ZN5World10clear_viewEv, .-_ZN5World10clear_viewEv
	.section	.text._ZN5World3runEv,"axG",@progbits,_ZN5World3runEv,comdat
	.align 2
	.weak	_ZN5World3runEv
	.type	_ZN5World3runEv, @function
_ZN5World3runEv:
.LFB2931:
	.cfi_startproc
	endbr64	
	pushq	%rbp	#
	.cfi_def_cfa_offset 16
	.cfi_offset 6, -16
	movq	%rsp, %rbp	#,
	.cfi_def_cfa_register 6
	pushq	%rbx	#
	subq	$40, %rsp	#,
	.cfi_offset 3, -24
	movq	%rdi, -40(%rbp)	# this, this
# src/main.cc:949:     void run(void) {
	movq	%fs:40, %rax	# MEM[(<address-space-1> long unsigned int *)40B], tmp125
	movq	%rax, -24(%rbp)	# tmp125, D.106024
	xorl	%eax, %eax	# tmp125
# src/main.cc:950:         world_init();
	movq	-40(%rbp), %rax	# this, tmp98
	movq	%rax, %rdi	# tmp98,
	call	_ZN5World10world_initEv	#
# src/main.cc:951:         view->set_user_cursor_pos(
	movq	-40(%rbp), %rax	# this, tmp99
	movq	72(%rax), %rax	# this_19(D)->view, _1
# src/main.cc:952:             {static_cast<int16_t>(view_size.y / 2),
	movq	-40(%rbp), %rdx	# this, tmp100
	movzwl	56(%rdx), %edx	# this_19(D)->view_size.y, _2
# src/main.cc:952:             {static_cast<int16_t>(view_size.y / 2),
	movl	%edx, %ecx	# _2, tmp101
	shrw	$15, %cx	#, tmp101
	addl	%ecx, %edx	# tmp101, tmp102
	sarw	%dx	# tmp103
# src/main.cc:951:         view->set_user_cursor_pos(
	movw	%dx, %bx	# _3, D.104869
# src/main.cc:953:              static_cast<int16_t>(view_size.x / 2)});
	movq	-40(%rbp), %rdx	# this, tmp104
	movzwl	58(%rdx), %edx	# this_19(D)->view_size.x, _4
# src/main.cc:953:              static_cast<int16_t>(view_size.x / 2)});
	movl	%edx, %ecx	# _4, tmp105
	shrw	$15, %cx	#, tmp105
	addl	%ecx, %edx	# tmp105, tmp106
	sarw	%dx	# tmp107
# src/main.cc:951:         view->set_user_cursor_pos(
	movzwl	%dx, %edx	# _5, tmp108
	movl	%edx, %ecx	# tmp108, tmp108
	sall	$16, %ecx	#, tmp108
	movzwl	%bx, %edx	# D.104869, tmp110
	orl	%ecx, %edx	# tmp109, tmp111
	movl	%edx, %ebx	# tmp111, D.104869
	movl	%ebx, %esi	# D.104869,
	movq	%rax, %rdi	# _1,
	call	_ZN4View19set_user_cursor_posE7POINT_T	#
# src/main.cc:954:         view_reset();
	movq	-40(%rbp), %rax	# this, tmp112
	movq	%rax, %rdi	# tmp112,
	call	_ZN5World10view_resetEv	#
# src/main.cc:956:         while (!flag_stop) {
	jmp	.L249	#
.L251:
# src/main.cc:958:                 std::chrono::milliseconds(refresh_rate));
	movq	-40(%rbp), %rax	# this, tmp113
	leaq	12(%rax), %rdx	#, _6
# src/main.cc:958:                 std::chrono::milliseconds(refresh_rate));
	leaq	-32(%rbp), %rax	#, tmp114
	movq	%rdx, %rsi	# _6,
	movq	%rax, %rdi	# tmp114,
	call	_ZNSt6chrono8durationIlSt5ratioILl1ELl1000EEEC1ItvEERKT_	#
# src/main.cc:957:             std::this_thread::sleep_for(
	leaq	-32(%rbp), %rax	#, tmp115
	movq	%rax, %rdi	# tmp115,
	call	_ZNSt11this_thread9sleep_forIlSt5ratioILl1ELl1000EEEEvRKNSt6chrono8durationIT_T0_EE	#
# src/main.cc:960:             if (generations > 0) {
	movq	-40(%rbp), %rax	# this, tmp116
	movl	88(%rax), %eax	# this_19(D)->generations, _7
# src/main.cc:960:             if (generations > 0) {
	testl	%eax, %eax	# _7
	je	.L249	#,
# src/main.cc:961:                 if (run_auto == false) {
	movq	-40(%rbp), %rax	# this, tmp117
	movzbl	92(%rax), %eax	# this_19(D)->run_auto, _8
	movzbl	%al, %eax	# _8, _9
# src/main.cc:961:                 if (run_auto == false) {
	testl	%eax, %eax	# _9
	jne	.L250	#,
# src/main.cc:962:                     generations--;
	movq	-40(%rbp), %rax	# this, tmp118
	movl	88(%rax), %eax	# this_19(D)->generations, _10
# src/main.cc:962:                     generations--;
	leal	-1(%rax), %edx	#, _11
	movq	-40(%rbp), %rax	# this, tmp119
	movl	%edx, 88(%rax)	# _11, this_19(D)->generations
.L250:
# src/main.cc:964:                 world_validate_cells();
	movq	-40(%rbp), %rax	# this, tmp120
	movq	%rax, %rdi	# tmp120,
	call	_ZN5World20world_validate_cellsEv	#
# src/main.cc:965:                 events_process();
	movq	-40(%rbp), %rax	# this, tmp121
	movq	%rax, %rdi	# tmp121,
	call	_ZN5World14events_processEv	#
# src/main.cc:966:                 view->refresh_view();
	movq	-40(%rbp), %rax	# this, tmp122
	movq	72(%rax), %rax	# this_19(D)->view, _12
# src/main.cc:966:                 view->refresh_view();
	movq	%rax, %rdi	# _12,
	call	_ZN4View12refresh_viewEv	#
# src/main.cc:967:                 view->refresh_info();
	movq	-40(%rbp), %rax	# this, tmp123
	movq	72(%rax), %rax	# this_19(D)->view, _13
# src/main.cc:967:                 view->refresh_info();
	movq	%rax, %rdi	# _13,
	call	_ZN4View12refresh_infoEv	#
.L249:
# src/main.cc:956:         while (!flag_stop) {
	movq	-40(%rbp), %rax	# this, tmp124
	movzbl	84(%rax), %eax	# this_19(D)->flag_stop, _14
# src/main.cc:956:         while (!flag_stop) {
	xorl	$1, %eax	#, _15
	testb	%al, %al	# _15
	jne	.L251	#,
# src/main.cc:970:     }
	nop	
	movq	-24(%rbp), %rax	# D.106024, tmp126
	subq	%fs:40, %rax	# MEM[(<address-space-1> long unsigned int *)40B], tmp126
	je	.L252	#,
	call	__stack_chk_fail@PLT	#
.L252:
	movq	-8(%rbp), %rbx	#,
	leave	
	.cfi_def_cfa 7, 8
	ret	
	.cfi_endproc
.LFE2931:
	.size	_ZN5World3runEv, .-_ZN5World3runEv
	.section	.text._ZN5World4stopEv,"axG",@progbits,_ZN5World4stopEv,comdat
	.align 2
	.weak	_ZN5World4stopEv
	.type	_ZN5World4stopEv, @function
_ZN5World4stopEv:
.LFB2932:
	.cfi_startproc
	endbr64	
	pushq	%rbp	#
	.cfi_def_cfa_offset 16
	.cfi_offset 6, -16
	movq	%rsp, %rbp	#,
	.cfi_def_cfa_register 6
	movq	%rdi, -8(%rbp)	# this, this
# src/main.cc:975:     void stop(void) { flag_stop = true; }
	movq	-8(%rbp), %rax	# this, tmp82
	movb	$1, 84(%rax)	#, this_2(D)->flag_stop
# src/main.cc:975:     void stop(void) { flag_stop = true; }
	nop	
	popq	%rbp	#
	.cfi_def_cfa 7, 8
	ret	
	.cfi_endproc
.LFE2932:
	.size	_ZN5World4stopEv, .-_ZN5World4stopEv
	.text
	.globl	_Z13input_get_intPPj
	.type	_Z13input_get_intPPj, @function
_Z13input_get_intPPj:
.LFB2933:
	.cfi_startproc
	endbr64	
	pushq	%rbp	#
	.cfi_def_cfa_offset 16
	.cfi_offset 6, -16
	movq	%rsp, %rbp	#,
	.cfi_def_cfa_register 6
	subq	$32, %rsp	#,
	movq	%rdi, -24(%rbp)	# arr, arr
# src/main.cc:982: void input_get_int(uint32_t **arr) {
	movq	%fs:40, %rax	# MEM[(<address-space-1> long unsigned int *)40B], tmp121
	movq	%rax, -8(%rbp)	# tmp121, D.106025
	xorl	%eax, %eax	# tmp121
# src/main.cc:983:     const uint8_t ASCII_NUMBER_MASK = 0XF;
	movb	$15, -13(%rbp)	#, ASCII_NUMBER_MASK
# src/main.cc:985:     uint32_t number = 0;
	movl	$0, -12(%rbp)	#, number
# src/main.cc:987:     if (*arr == NULL || std::cin.eof()) {
	movq	-24(%rbp), %rax	# arr, tmp104
	movq	(%rax), %rax	# *arr_35(D), _1
# src/main.cc:987:     if (*arr == NULL || std::cin.eof()) {
	testq	%rax, %rax	# _1
	je	.L255	#,
# src/main.cc:987:     if (*arr == NULL || std::cin.eof()) {
	leaq	16+_ZSt3cin(%rip), %rax	#, tmp105
	movq	%rax, %rdi	# tmp105,
	call	_ZNKSt9basic_iosIcSt11char_traitsIcEE3eofEv@PLT	#
# src/main.cc:987:     if (*arr == NULL || std::cin.eof()) {
	testb	%al, %al	# _2
	je	.L256	#,
.L255:
# src/main.cc:987:     if (*arr == NULL || std::cin.eof()) {
	movl	$1, %eax	#, iftmp.7_23
	jmp	.L257	#
.L256:
# src/main.cc:987:     if (*arr == NULL || std::cin.eof()) {
	movl	$0, %eax	#, iftmp.7_23
.L257:
# src/main.cc:987:     if (*arr == NULL || std::cin.eof()) {
	testb	%al, %al	# iftmp.7_23
	jne	.L267	#,
# src/main.cc:991:     std::cin.get(c);
	leaq	-14(%rbp), %rax	#, tmp106
	movq	%rax, %rsi	# tmp106,
	leaq	_ZSt3cin(%rip), %rax	#, tmp107
	movq	%rax, %rdi	# tmp107,
	call	_ZNSi3getERc@PLT	#
# src/main.cc:993:     while (ascii_is_int(c) && !std::cin.eof()) {
	jmp	.L260	#
.L264:
# src/main.cc:994:         if (number * 10 +
	movl	-12(%rbp), %edx	# number, tmp108
	movl	%edx, %eax	# tmp108, tmp109
	sall	$2, %eax	#, tmp109
	addl	%edx, %eax	# tmp108, tmp109
	addl	%eax, %eax	# tmp110
	movl	%eax, %edx	# tmp109, _3
# src/main.cc:995:                 static_cast<uint16_t>(c & ASCII_NUMBER_MASK) >
	movzbl	-14(%rbp), %eax	# c, c.8_4
	cbtw
# src/main.cc:995:                 static_cast<uint16_t>(c & ASCII_NUMBER_MASK) >
	movzwl	%ax, %eax	# _5, _6
	andl	$15, %eax	#, _7
# src/main.cc:994:         if (number * 10 +
	addl	%edx, %eax	# _3, _8
# src/main.cc:994:         if (number * 10 +
	cmpl	%eax, -12(%rbp)	# _8, number
	jnb	.L261	#,
# src/main.cc:997:             number = number * 10 +
	movl	-12(%rbp), %edx	# number, tmp111
	movl	%edx, %eax	# tmp111, tmp112
	sall	$2, %eax	#, tmp112
	addl	%edx, %eax	# tmp111, tmp112
	addl	%eax, %eax	# tmp113
	movl	%eax, %edx	# tmp112, _9
# src/main.cc:998:                      static_cast<uint16_t>(c & ASCII_NUMBER_MASK);
	movzbl	-14(%rbp), %eax	# c, c.9_10
	cbtw
# src/main.cc:998:                      static_cast<uint16_t>(c & ASCII_NUMBER_MASK);
	movzwl	%ax, %eax	# _11, _12
	andl	$15, %eax	#, _13
# src/main.cc:997:             number = number * 10 +
	addl	%edx, %eax	# _9, tmp114
	movl	%eax, -12(%rbp)	# tmp114, number
.L261:
# src/main.cc:1000:         std::cin.get(c);
	leaq	-14(%rbp), %rax	#, tmp115
	movq	%rax, %rsi	# tmp115,
	leaq	_ZSt3cin(%rip), %rax	#, tmp116
	movq	%rax, %rdi	# tmp116,
	call	_ZNSi3getERc@PLT	#
.L260:
# src/main.cc:993:     while (ascii_is_int(c) && !std::cin.eof()) {
	movzbl	-14(%rbp), %eax	# c, c.12_14
# src/main.cc:993:     while (ascii_is_int(c) && !std::cin.eof()) {
	movzbl	%al, %eax	# c.13_15, _16
	movl	%eax, %edi	# _16,
	call	_Z12ascii_is_inth	#
# src/main.cc:993:     while (ascii_is_int(c) && !std::cin.eof()) {
	testb	%al, %al	# _17
	je	.L262	#,
# src/main.cc:993:     while (ascii_is_int(c) && !std::cin.eof()) {
	leaq	16+_ZSt3cin(%rip), %rax	#, tmp117
	movq	%rax, %rdi	# tmp117,
	call	_ZNKSt9basic_iosIcSt11char_traitsIcEE3eofEv@PLT	#
# src/main.cc:993:     while (ascii_is_int(c) && !std::cin.eof()) {
	xorl	$1, %eax	#, _19
# src/main.cc:993:     while (ascii_is_int(c) && !std::cin.eof()) {
	testb	%al, %al	# _19
	je	.L262	#,
# src/main.cc:993:     while (ascii_is_int(c) && !std::cin.eof()) {
	movl	$1, %eax	#, iftmp.11_24
	jmp	.L263	#
.L262:
# src/main.cc:993:     while (ascii_is_int(c) && !std::cin.eof()) {
	movl	$0, %eax	#, iftmp.11_24
.L263:
# src/main.cc:993:     while (ascii_is_int(c) && !std::cin.eof()) {
	testb	%al, %al	# iftmp.11_24
	jne	.L264	#,
# src/main.cc:1003:     **arr = number;
	movq	-24(%rbp), %rax	# arr, tmp118
	movq	(%rax), %rax	# *arr_35(D), _20
# src/main.cc:1003:     **arr = number;
	movl	-12(%rbp), %edx	# number, tmp119
	movl	%edx, (%rax)	# tmp119, *_20
# src/main.cc:1004:     return input_get_int(++arr);
	addq	$8, -24(%rbp)	#, arr
	movq	-24(%rbp), %rax	# arr, tmp120
	movq	%rax, %rdi	# tmp120,
	call	_Z13input_get_intPPj	#
# src/main.cc:1004:     return input_get_int(++arr);
	jmp	.L254	#
.L267:
# src/main.cc:988:         return;
	nop	
.L254:
# src/main.cc:1005: }
	movq	-8(%rbp), %rax	# D.106025, tmp122
	subq	%fs:40, %rax	# MEM[(<address-space-1> long unsigned int *)40B], tmp122
	je	.L266	#,
	call	__stack_chk_fail@PLT	#
.L266:
	leave	
	.cfi_def_cfa 7, 8
	ret	
	.cfi_endproc
.LFE2933:
	.size	_Z13input_get_intPPj, .-_Z13input_get_intPPj
	.globl	_Z17cbi_cursor_toggleR5World
	.type	_Z17cbi_cursor_toggleR5World, @function
_Z17cbi_cursor_toggleR5World:
.LFB2934:
	.cfi_startproc
	endbr64	
	pushq	%rbp	#
	.cfi_def_cfa_offset 16
	.cfi_offset 6, -16
	movq	%rsp, %rbp	#,
	.cfi_def_cfa_register 6
	subq	$16, %rsp	#,
	movq	%rdi, -8(%rbp)	# w, w
# src/main.cc:1011: void cbi_cursor_toggle(World &w) { w.toggle_cursor_value(); }
	movq	-8(%rbp), %rax	# w, tmp82
	movq	%rax, %rdi	# tmp82,
	call	_ZN5World19toggle_cursor_valueEv	#
# src/main.cc:1011: void cbi_cursor_toggle(World &w) { w.toggle_cursor_value(); }
	nop	
	leave	
	.cfi_def_cfa 7, 8
	ret	
	.cfi_endproc
.LFE2934:
	.size	_Z17cbi_cursor_toggleR5World, .-_Z17cbi_cursor_toggleR5World
	.globl	_Z13cbi_cursor_upR5World
	.type	_Z13cbi_cursor_upR5World, @function
_Z13cbi_cursor_upR5World:
.LFB2935:
	.cfi_startproc
	endbr64	
	pushq	%rbp	#
	.cfi_def_cfa_offset 16
	.cfi_offset 6, -16
	movq	%rsp, %rbp	#,
	.cfi_def_cfa_register 6
	subq	$16, %rsp	#,
	movq	%rdi, -8(%rbp)	# w, w
# src/main.cc:1017: void cbi_cursor_up(World &w) { w.cursor_move_up(); }
	movq	-8(%rbp), %rax	# w, tmp82
	movq	%rax, %rdi	# tmp82,
	call	_ZN5World14cursor_move_upEv	#
# src/main.cc:1017: void cbi_cursor_up(World &w) { w.cursor_move_up(); }
	nop	
	leave	
	.cfi_def_cfa 7, 8
	ret	
	.cfi_endproc
.LFE2935:
	.size	_Z13cbi_cursor_upR5World, .-_Z13cbi_cursor_upR5World
	.globl	_Z15cbi_cursor_downR5World
	.type	_Z15cbi_cursor_downR5World, @function
_Z15cbi_cursor_downR5World:
.LFB2936:
	.cfi_startproc
	endbr64	
	pushq	%rbp	#
	.cfi_def_cfa_offset 16
	.cfi_offset 6, -16
	movq	%rsp, %rbp	#,
	.cfi_def_cfa_register 6
	subq	$16, %rsp	#,
	movq	%rdi, -8(%rbp)	# w, w
# src/main.cc:1023: void cbi_cursor_down(World &w) { w.cursor_move_down(); }
	movq	-8(%rbp), %rax	# w, tmp82
	movq	%rax, %rdi	# tmp82,
	call	_ZN5World16cursor_move_downEv	#
# src/main.cc:1023: void cbi_cursor_down(World &w) { w.cursor_move_down(); }
	nop	
	leave	
	.cfi_def_cfa 7, 8
	ret	
	.cfi_endproc
.LFE2936:
	.size	_Z15cbi_cursor_downR5World, .-_Z15cbi_cursor_downR5World
	.globl	_Z15cbi_cursor_leftR5World
	.type	_Z15cbi_cursor_leftR5World, @function
_Z15cbi_cursor_leftR5World:
.LFB2937:
	.cfi_startproc
	endbr64	
	pushq	%rbp	#
	.cfi_def_cfa_offset 16
	.cfi_offset 6, -16
	movq	%rsp, %rbp	#,
	.cfi_def_cfa_register 6
	subq	$16, %rsp	#,
	movq	%rdi, -8(%rbp)	# w, w
# src/main.cc:1029: void cbi_cursor_left(World &w) { w.cursor_move_left(); }
	movq	-8(%rbp), %rax	# w, tmp82
	movq	%rax, %rdi	# tmp82,
	call	_ZN5World16cursor_move_leftEv	#
# src/main.cc:1029: void cbi_cursor_left(World &w) { w.cursor_move_left(); }
	nop	
	leave	
	.cfi_def_cfa 7, 8
	ret	
	.cfi_endproc
.LFE2937:
	.size	_Z15cbi_cursor_leftR5World, .-_Z15cbi_cursor_leftR5World
	.globl	_Z16cbi_cursor_rightR5World
	.type	_Z16cbi_cursor_rightR5World, @function
_Z16cbi_cursor_rightR5World:
.LFB2938:
	.cfi_startproc
	endbr64	
	pushq	%rbp	#
	.cfi_def_cfa_offset 16
	.cfi_offset 6, -16
	movq	%rsp, %rbp	#,
	.cfi_def_cfa_register 6
	subq	$16, %rsp	#,
	movq	%rdi, -8(%rbp)	# w, w
# src/main.cc:1035: void cbi_cursor_right(World &w) { w.cursor_move_right(); }
	movq	-8(%rbp), %rax	# w, tmp82
	movq	%rax, %rdi	# tmp82,
	call	_ZN5World17cursor_move_rightEv	#
# src/main.cc:1035: void cbi_cursor_right(World &w) { w.cursor_move_right(); }
	nop	
	leave	
	.cfi_def_cfa 7, 8
	ret	
	.cfi_endproc
.LFE2938:
	.size	_Z16cbi_cursor_rightR5World, .-_Z16cbi_cursor_rightR5World
	.globl	_Z18cbi_move_view_leftR5World
	.type	_Z18cbi_move_view_leftR5World, @function
_Z18cbi_move_view_leftR5World:
.LFB2939:
	.cfi_startproc
	endbr64	
	pushq	%rbp	#
	.cfi_def_cfa_offset 16
	.cfi_offset 6, -16
	movq	%rsp, %rbp	#,
	.cfi_def_cfa_register 6
	subq	$16, %rsp	#,
	movq	%rdi, -8(%rbp)	# w, w
# src/main.cc:1041: void cbi_move_view_left(World &w) { w.view_move_left(); }
	movq	-8(%rbp), %rax	# w, tmp82
	movq	%rax, %rdi	# tmp82,
	call	_ZN5World14view_move_leftEv	#
# src/main.cc:1041: void cbi_move_view_left(World &w) { w.view_move_left(); }
	nop	
	leave	
	.cfi_def_cfa 7, 8
	ret	
	.cfi_endproc
.LFE2939:
	.size	_Z18cbi_move_view_leftR5World, .-_Z18cbi_move_view_leftR5World
	.globl	_Z19cbi_move_view_rightR5World
	.type	_Z19cbi_move_view_rightR5World, @function
_Z19cbi_move_view_rightR5World:
.LFB2940:
	.cfi_startproc
	endbr64	
	pushq	%rbp	#
	.cfi_def_cfa_offset 16
	.cfi_offset 6, -16
	movq	%rsp, %rbp	#,
	.cfi_def_cfa_register 6
	subq	$16, %rsp	#,
	movq	%rdi, -8(%rbp)	# w, w
# src/main.cc:1047: void cbi_move_view_right(World &w) { w.view_move_right(); }
	movq	-8(%rbp), %rax	# w, tmp82
	movq	%rax, %rdi	# tmp82,
	call	_ZN5World15view_move_rightEv	#
# src/main.cc:1047: void cbi_move_view_right(World &w) { w.view_move_right(); }
	nop	
	leave	
	.cfi_def_cfa 7, 8
	ret	
	.cfi_endproc
.LFE2940:
	.size	_Z19cbi_move_view_rightR5World, .-_Z19cbi_move_view_rightR5World
	.globl	_Z16cbi_move_view_upR5World
	.type	_Z16cbi_move_view_upR5World, @function
_Z16cbi_move_view_upR5World:
.LFB2941:
	.cfi_startproc
	endbr64	
	pushq	%rbp	#
	.cfi_def_cfa_offset 16
	.cfi_offset 6, -16
	movq	%rsp, %rbp	#,
	.cfi_def_cfa_register 6
	subq	$16, %rsp	#,
	movq	%rdi, -8(%rbp)	# w, w
# src/main.cc:1053: void cbi_move_view_up(World &w) { w.view_move_up(); }
	movq	-8(%rbp), %rax	# w, tmp82
	movq	%rax, %rdi	# tmp82,
	call	_ZN5World12view_move_upEv	#
# src/main.cc:1053: void cbi_move_view_up(World &w) { w.view_move_up(); }
	nop	
	leave	
	.cfi_def_cfa 7, 8
	ret	
	.cfi_endproc
.LFE2941:
	.size	_Z16cbi_move_view_upR5World, .-_Z16cbi_move_view_upR5World
	.globl	_Z18cbi_move_view_downR5World
	.type	_Z18cbi_move_view_downR5World, @function
_Z18cbi_move_view_downR5World:
.LFB2942:
	.cfi_startproc
	endbr64	
	pushq	%rbp	#
	.cfi_def_cfa_offset 16
	.cfi_offset 6, -16
	movq	%rsp, %rbp	#,
	.cfi_def_cfa_register 6
	subq	$16, %rsp	#,
	movq	%rdi, -8(%rbp)	# w, w
# src/main.cc:1059: void cbi_move_view_down(World &w) { w.view_move_down(); }
	movq	-8(%rbp), %rax	# w, tmp82
	movq	%rax, %rdi	# tmp82,
	call	_ZN5World14view_move_downEv	#
# src/main.cc:1059: void cbi_move_view_down(World &w) { w.view_move_down(); }
	nop	
	leave	
	.cfi_def_cfa 7, 8
	ret	
	.cfi_endproc
.LFE2942:
	.size	_Z18cbi_move_view_downR5World, .-_Z18cbi_move_view_downR5World
	.globl	_Z8cbi_stopR5World
	.type	_Z8cbi_stopR5World, @function
_Z8cbi_stopR5World:
.LFB2943:
	.cfi_startproc
	endbr64	
	pushq	%rbp	#
	.cfi_def_cfa_offset 16
	.cfi_offset 6, -16
	movq	%rsp, %rbp	#,
	.cfi_def_cfa_register 6
	subq	$16, %rsp	#,
	movq	%rdi, -8(%rbp)	# w, w
# src/main.cc:1065: void cbi_stop(World &w) { w.stop(); }
	movq	-8(%rbp), %rax	# w, tmp82
	movq	%rax, %rdi	# tmp82,
	call	_ZN5World4stopEv	#
# src/main.cc:1065: void cbi_stop(World &w) { w.stop(); }
	nop	
	leave	
	.cfi_def_cfa 7, 8
	ret	
	.cfi_endproc
.LFE2943:
	.size	_Z8cbi_stopR5World, .-_Z8cbi_stopR5World
	.globl	_Z14cbi_reset_viewR5World
	.type	_Z14cbi_reset_viewR5World, @function
_Z14cbi_reset_viewR5World:
.LFB2944:
	.cfi_startproc
	endbr64	
	pushq	%rbp	#
	.cfi_def_cfa_offset 16
	.cfi_offset 6, -16
	movq	%rsp, %rbp	#,
	.cfi_def_cfa_register 6
	subq	$16, %rsp	#,
	movq	%rdi, -8(%rbp)	# w, w
# src/main.cc:1071: void cbi_reset_view(World &w) { w.view_reset(); }
	movq	-8(%rbp), %rax	# w, tmp82
	movq	%rax, %rdi	# tmp82,
	call	_ZN5World10view_resetEv	#
# src/main.cc:1071: void cbi_reset_view(World &w) { w.view_reset(); }
	nop	
	leave	
	.cfi_def_cfa 7, 8
	ret	
	.cfi_endproc
.LFE2944:
	.size	_Z14cbi_reset_viewR5World, .-_Z14cbi_reset_viewR5World
	.globl	_Z15cbi_generationsR5World
	.type	_Z15cbi_generationsR5World, @function
_Z15cbi_generationsR5World:
.LFB2945:
	.cfi_startproc
	endbr64	
	pushq	%rbp	#
	.cfi_def_cfa_offset 16
	.cfi_offset 6, -16
	movq	%rsp, %rbp	#,
	.cfi_def_cfa_register 6
	subq	$64, %rsp	#,
	movq	%rdi, -56(%rbp)	# world, world
# src/main.cc:1077: void cbi_generations(World &world) {
	movq	%fs:40, %rax	# MEM[(<address-space-1> long unsigned int *)40B], tmp89
	movq	%rax, -8(%rbp)	# tmp89, D.106026
	xorl	%eax, %eax	# tmp89
# src/main.cc:1078:     char c = std::cin.get();
	leaq	_ZSt3cin(%rip), %rax	#, tmp84
	movq	%rax, %rdi	# tmp84,
	call	_ZNSi3getEv@PLT	#
# src/main.cc:1078:     char c = std::cin.get();
	movb	%al, -37(%rbp)	# _1, c
# src/main.cc:1079:     uint32_t generations = 0;
	movl	$0, -36(%rbp)	#, generations
# src/main.cc:1080:     uint32_t *arr[2] = {&generations, NULL};
	movq	$0, -32(%rbp)	#, arr
	movq	$0, -24(%rbp)	#, arr
# src/main.cc:1080:     uint32_t *arr[2] = {&generations, NULL};
	leaq	-36(%rbp), %rax	#, tmp85
	movq	%rax, -32(%rbp)	# tmp85, arr[0]
# src/main.cc:1082:     if (c == 'a') {
	cmpb	$97, -37(%rbp)	#, c
	jne	.L280	#,
# src/main.cc:1083:         world.toggle_run_mode();
	movq	-56(%rbp), %rax	# world, tmp86
	movq	%rax, %rdi	# tmp86,
	call	_ZN5World15toggle_run_modeEv	#
# src/main.cc:1088: }
	jmp	.L283	#
.L280:
# src/main.cc:1084:     } else if (c == 's') {
	cmpb	$115, -37(%rbp)	#, c
	jne	.L283	#,
# src/main.cc:1085:         input_get_int(arr);
	leaq	-32(%rbp), %rax	#, tmp87
	movq	%rax, %rdi	# tmp87,
	call	_Z13input_get_intPPj	#
# src/main.cc:1086:         world.set_generations(generations);
	movl	-36(%rbp), %edx	# generations, generations.25_2
	movq	-56(%rbp), %rax	# world, tmp88
	movl	%edx, %esi	# generations.25_2,
	movq	%rax, %rdi	# tmp88,
	call	_ZN5World15set_generationsEj	#
.L283:
# src/main.cc:1088: }
	nop	
	movq	-8(%rbp), %rax	# D.106026, tmp90
	subq	%fs:40, %rax	# MEM[(<address-space-1> long unsigned int *)40B], tmp90
	je	.L282	#,
	call	__stack_chk_fail@PLT	#
.L282:
	leave	
	.cfi_def_cfa 7, 8
	ret	
	.cfi_endproc
.LFE2945:
	.size	_Z15cbi_generationsR5World, .-_Z15cbi_generationsR5World
	.section	.text._ZNSt8functionIFvR5WorldEED2Ev,"axG",@progbits,_ZNSt8functionIFvR5WorldEED5Ev,comdat
	.align 2
	.weak	_ZNSt8functionIFvR5WorldEED2Ev
	.type	_ZNSt8functionIFvR5WorldEED2Ev, @function
_ZNSt8functionIFvR5WorldEED2Ev:
.LFB2967:
	.cfi_startproc
	endbr64	
	pushq	%rbp	#
	.cfi_def_cfa_offset 16
	.cfi_offset 6, -16
	movq	%rsp, %rbp	#,
	.cfi_def_cfa_register 6
	subq	$16, %rsp	#,
	movq	%rdi, -8(%rbp)	# this, this
# /usr/include/c++/11/bits/std_function.h:334:     class function<_Res(_ArgTypes...)>
	movq	-8(%rbp), %rax	# this, _1
	movq	%rax, %rdi	# _1,
	call	_ZNSt14_Function_baseD2Ev	#
	nop	
	leave	
	.cfi_def_cfa 7, 8
	ret	
	.cfi_endproc
.LFE2967:
	.size	_ZNSt8functionIFvR5WorldEED2Ev, .-_ZNSt8functionIFvR5WorldEED2Ev
	.weak	_ZNSt8functionIFvR5WorldEED1Ev
	.set	_ZNSt8functionIFvR5WorldEED1Ev,_ZNSt8functionIFvR5WorldEED2Ev
	.section	.text._ZNSt4pairIKcSt8functionIFvR5WorldEEED2Ev,"axG",@progbits,_ZNSt4pairIKcSt8functionIFvR5WorldEEED5Ev,comdat
	.align 2
	.weak	_ZNSt4pairIKcSt8functionIFvR5WorldEEED2Ev
	.type	_ZNSt4pairIKcSt8functionIFvR5WorldEEED2Ev, @function
_ZNSt4pairIKcSt8functionIFvR5WorldEEED2Ev:
.LFB2969:
	.cfi_startproc
	endbr64	
	pushq	%rbp	#
	.cfi_def_cfa_offset 16
	.cfi_offset 6, -16
	movq	%rsp, %rbp	#,
	.cfi_def_cfa_register 6
	subq	$16, %rsp	#,
	movq	%rdi, -8(%rbp)	# this, this
# /usr/include/c++/11/bits/stl_pair.h:211:     struct pair
	movq	-8(%rbp), %rax	# this, tmp83
	addq	$8, %rax	#, _1
	movq	%rax, %rdi	# _1,
	call	_ZNSt8functionIFvR5WorldEED1Ev	#
	nop	
	leave	
	.cfi_def_cfa 7, 8
	ret	
	.cfi_endproc
.LFE2969:
	.size	_ZNSt4pairIKcSt8functionIFvR5WorldEEED2Ev, .-_ZNSt4pairIKcSt8functionIFvR5WorldEEED2Ev
	.weak	_ZNSt4pairIKcSt8functionIFvR5WorldEEED1Ev
	.set	_ZNSt4pairIKcSt8functionIFvR5WorldEEED1Ev,_ZNSt4pairIKcSt8functionIFvR5WorldEEED2Ev
	.section	.text._ZNSt4pairIKcSt8functionIFvR5WorldEEEC1IcMS2_FvvELb1EEEOT_OT0_,"axG",@progbits,_ZNSt4pairIKcSt8functionIFvR5WorldEEEC1IcMS2_FvvELb1EEEOT_OT0_,comdat
	.align 2
	.weak	_ZNSt4pairIKcSt8functionIFvR5WorldEEEC1IcMS2_FvvELb1EEEOT_OT0_
	.type	_ZNSt4pairIKcSt8functionIFvR5WorldEEEC1IcMS2_FvvELb1EEEOT_OT0_, @function
_ZNSt4pairIKcSt8functionIFvR5WorldEEEC1IcMS2_FvvELb1EEEOT_OT0_:
.LFB2973:
	.cfi_startproc
	endbr64	
	pushq	%rbp	#
	.cfi_def_cfa_offset 16
	.cfi_offset 6, -16
	movq	%rsp, %rbp	#,
	.cfi_def_cfa_register 6
	pushq	%rbx	#
	subq	$40, %rsp	#,
	.cfi_offset 3, -24
	movq	%rdi, -24(%rbp)	# this, this
	movq	%rsi, -32(%rbp)	# __x, __x
	movq	%rdx, -40(%rbp)	# __y, __y
# /usr/include/c++/11/bits/stl_pair.h:353: 	: first(std::forward<_U1>(__x)), second(std::forward<_U2>(__y)) { }
	movq	-32(%rbp), %rax	# __x, tmp87
	movq	%rax, %rdi	# tmp87,
	call	_ZSt7forwardIcEOT_RNSt16remove_referenceIS0_E4typeE	#
# /usr/include/c++/11/bits/stl_pair.h:353: 	: first(std::forward<_U1>(__x)), second(std::forward<_U2>(__y)) { }
	movzbl	(%rax), %edx	# *_1, _2
	movq	-24(%rbp), %rax	# this, tmp88
	movb	%dl, (%rax)	# _2, this_7(D)->first
# /usr/include/c++/11/bits/stl_pair.h:353: 	: first(std::forward<_U1>(__x)), second(std::forward<_U2>(__y)) { }
	movq	-24(%rbp), %rax	# this, tmp89
	leaq	8(%rax), %rbx	#, _3
	movq	-40(%rbp), %rax	# __y, tmp90
	movq	%rax, %rdi	# tmp90,
	call	_ZSt7forwardIM5WorldFvvEEOT_RNSt16remove_referenceIS3_E4typeE	#
	movq	%rax, %rsi	# _4,
	movq	%rbx, %rdi	# _3,
	call	_ZNSt8functionIFvR5WorldEEC1IMS0_FvvEvEEOT_	#
# /usr/include/c++/11/bits/stl_pair.h:353: 	: first(std::forward<_U1>(__x)), second(std::forward<_U2>(__y)) { }
	nop	
	movq	-8(%rbp), %rbx	#,
	leave	
	.cfi_def_cfa 7, 8
	ret	
	.cfi_endproc
.LFE2973:
	.size	_ZNSt4pairIKcSt8functionIFvR5WorldEEEC1IcMS2_FvvELb1EEEOT_OT0_, .-_ZNSt4pairIKcSt8functionIFvR5WorldEEEC1IcMS2_FvvELb1EEEOT_OT0_
	.section	.text._ZNSt13unordered_mapIcSt8functionIFvR5WorldEESt4hashIcESt8equal_toIcESaISt4pairIKcS4_EEED2Ev,"axG",@progbits,_ZNSt13unordered_mapIcSt8functionIFvR5WorldEESt4hashIcESt8equal_toIcESaISt4pairIKcS4_EEED5Ev,comdat
	.align 2
	.weak	_ZNSt13unordered_mapIcSt8functionIFvR5WorldEESt4hashIcESt8equal_toIcESaISt4pairIKcS4_EEED2Ev
	.type	_ZNSt13unordered_mapIcSt8functionIFvR5WorldEESt4hashIcESt8equal_toIcESaISt4pairIKcS4_EEED2Ev, @function
_ZNSt13unordered_mapIcSt8functionIFvR5WorldEESt4hashIcESt8equal_toIcESaISt4pairIKcS4_EEED2Ev:
.LFB2975:
	.cfi_startproc
	endbr64	
	pushq	%rbp	#
	.cfi_def_cfa_offset 16
	.cfi_offset 6, -16
	movq	%rsp, %rbp	#,
	.cfi_def_cfa_register 6
	subq	$16, %rsp	#,
	movq	%rdi, -8(%rbp)	# this, this
# /usr/include/c++/11/bits/unordered_map.h:102:     class unordered_map
	movq	-8(%rbp), %rax	# this, _1
	movq	%rax, %rdi	# _1,
	call	_ZNSt10_HashtableIcSt4pairIKcSt8functionIFvR5WorldEEESaIS7_ENSt8__detail10_Select1stESt8equal_toIcESt4hashIcENS9_18_Mod_range_hashingENS9_20_Default_ranged_hashENS9_20_Prime_rehash_policyENS9_17_Hashtable_traitsILb0ELb0ELb1EEEED1Ev	#
	nop	
	leave	
	.cfi_def_cfa 7, 8
	ret	
	.cfi_endproc
.LFE2975:
	.size	_ZNSt13unordered_mapIcSt8functionIFvR5WorldEESt4hashIcESt8equal_toIcESaISt4pairIKcS4_EEED2Ev, .-_ZNSt13unordered_mapIcSt8functionIFvR5WorldEESt4hashIcESt8equal_toIcESaISt4pairIKcS4_EEED2Ev
	.weak	_ZNSt13unordered_mapIcSt8functionIFvR5WorldEESt4hashIcESt8equal_toIcESaISt4pairIKcS4_EEED1Ev
	.set	_ZNSt13unordered_mapIcSt8functionIFvR5WorldEESt4hashIcESt8equal_toIcESaISt4pairIKcS4_EEED1Ev,_ZNSt13unordered_mapIcSt8functionIFvR5WorldEESt4hashIcESt8equal_toIcESaISt4pairIKcS4_EEED2Ev
	.text
	.globl	_Z9cbi_clearR5World
	.type	_Z9cbi_clearR5World, @function
_Z9cbi_clearR5World:
.LFB2946:
	.cfi_startproc
	.cfi_personality 0x9b,DW.ref.__gxx_personality_v0
	.cfi_lsda 0x1b,.LLSDA2946
	endbr64	
	pushq	%rbp	#
	.cfi_def_cfa_offset 16
	.cfi_offset 6, -16
	movq	%rsp, %rbp	#,
	.cfi_def_cfa_register 6
	pushq	%r13	#
	pushq	%r12	#
	pushq	%rbx	#
	subq	$232, %rsp	#,
	.cfi_offset 13, -24
	.cfi_offset 12, -32
	.cfi_offset 3, -40
	movq	%rdi, -248(%rbp)	# world, world
# src/main.cc:1093: void cbi_clear(World &world) {
	movq	%fs:40, %rax	# MEM[(<address-space-1> long unsigned int *)40B], tmp134
	movq	%rax, -40(%rbp)	# tmp134, D.106030
	xorl	%eax, %eax	# tmp134
# src/main.cc:1094:     char c = std::cin.get();
	leaq	_ZSt3cin(%rip), %rax	#, tmp91
	movq	%rax, %rdi	# tmp91,
.LEHB26:
	call	_ZNSi3getEv@PLT	#
.LEHE26:
# src/main.cc:1094:     char c = std::cin.get();
	movb	%al, -230(%rbp)	# _2, c
# src/main.cc:1097:             {'v', &World::clear_view},
	movb	$118, -229(%rbp)	#, D.70836
# src/main.cc:1099:         };
	leaq	_ZN5World10clear_viewEv(%rip), %rax	#, tmp92
	movq	%rax, -224(%rbp)	# tmp92, MEM[(struct  *)_66].__pfn
	movq	$0, -216(%rbp)	#, MEM[(struct  *)_66].__delta
	leaq	-224(%rbp), %rdx	#, tmp93
	leaq	-229(%rbp), %rcx	#, tmp94
	leaq	-128(%rbp), %rax	#, tmp95
	movq	%rcx, %rsi	# tmp94,
	movq	%rax, %rdi	# tmp95,
	call	_ZNSt4pairIKcSt8functionIFvR5WorldEEEC1IcMS2_FvvELb1EEEOT_OT0_	#
# src/main.cc:1098:             {'w', &World::clear_world},
	movb	$119, -228(%rbp)	#, D.70862
# src/main.cc:1099:         };
	leaq	_ZN5World11clear_worldEv(%rip), %rax	#, tmp96
	movq	%rax, -208(%rbp)	# tmp96, MEM[(struct  *)_65].__pfn
	movq	$0, -200(%rbp)	#, MEM[(struct  *)_65].__delta
	leaq	-208(%rbp), %rdx	#, tmp97
	leaq	-228(%rbp), %rax	#, tmp98
	leaq	-128(%rbp), %rcx	#, tmp99
	addq	$40, %rcx	#, tmp100
	movq	%rax, %rsi	# tmp98,
	movq	%rcx, %rdi	# tmp100,
	call	_ZNSt4pairIKcSt8functionIFvR5WorldEEEC1IcMS2_FvvELb1EEEOT_OT0_	#
	leaq	-128(%rbp), %rax	#, tmp101
	movq	%rax, %r12	# tmp101, D.70889
	movl	$2, %r13d	#, D.70889
	leaq	-225(%rbp), %rax	#, tmp102
	movq	%rax, %rdi	# tmp102,
	call	_ZNSaISt4pairIKcSt8functionIFvR5WorldEEEEC1Ev	#
	leaq	-226(%rbp), %rdi	#, tmp103
	leaq	-227(%rbp), %rsi	#, tmp104
	movq	%r12, %rcx	# D.70889, tmp105
	movq	%r13, %rbx	# D.70889,
	movq	%r12, %rax	# D.70889, tmp106
	movq	%r13, %rdx	# D.70889,
	movq	%rcx, %r11	# tmp105, tmp107
	movq	%rdx, %r10	#, tmp108
	leaq	-192(%rbp), %rax	#, tmp109
	subq	$8, %rsp	#,
	leaq	-225(%rbp), %rdx	#, tmp110
	pushq	%rdx	# tmp110
	movq	%rdi, %r9	# tmp103,
	movq	%rsi, %r8	# tmp104,
	movl	$0, %ecx	#,
	movq	%r11, %rsi	# tmp107,
	movq	%r10, %rdx	# tmp108,
	movq	%rax, %rdi	# tmp109,
.LEHB27:
	.cfi_escape 0x2e,0x10
	call	_ZNSt13unordered_mapIcSt8functionIFvR5WorldEESt4hashIcESt8equal_toIcESaISt4pairIKcS4_EEEC1ESt16initializer_listISB_EmRKS6_RKS8_RKSC_	#
.LEHE27:
	addq	$16, %rsp	#,
	leaq	-225(%rbp), %rax	#, tmp111
	movq	%rax, %rdi	# tmp111,
	call	_ZNSaISt4pairIKcSt8functionIFvR5WorldEEEED1Ev	#
	leaq	-128(%rbp), %rbx	#, _4
	addq	$80, %rbx	#, _4
.L290:
	leaq	-128(%rbp), %rax	#, tmp112
	cmpq	%rax, %rbx	# tmp112, _4
	je	.L289	#,
	subq	$40, %rbx	#, _4
	movq	%rbx, %rdi	# _4,
	call	_ZNSt4pairIKcSt8functionIFvR5WorldEEED1Ev	#
	jmp	.L290	#
.L289:
# src/main.cc:1101:     if (map_callback.find(c) != map_callback.end()) {
	leaq	-192(%rbp), %rax	#, tmp113
	movq	%rax, %rdi	# tmp113,
	call	_ZNSt13unordered_mapIcSt8functionIFvR5WorldEESt4hashIcESt8equal_toIcESaISt4pairIKcS4_EEE3endEv	#
	movq	%rax, -208(%rbp)	# tmp115, MEM[(struct _Node_iterator *)_65]
# src/main.cc:1101:     if (map_callback.find(c) != map_callback.end()) {
	leaq	-230(%rbp), %rdx	#, tmp116
	leaq	-192(%rbp), %rax	#, tmp117
	movq	%rdx, %rsi	# tmp116,
	movq	%rax, %rdi	# tmp117,
.LEHB28:
	.cfi_escape 0x2e,0
	call	_ZNSt13unordered_mapIcSt8functionIFvR5WorldEESt4hashIcESt8equal_toIcESaISt4pairIKcS4_EEE4findERSA_	#
	movq	%rax, -224(%rbp)	# tmp119, MEM[(struct _Node_iterator *)_66]
# src/main.cc:1101:     if (map_callback.find(c) != map_callback.end()) {
	leaq	-208(%rbp), %rdx	#, tmp120
	leaq	-224(%rbp), %rax	#, tmp121
	movq	%rdx, %rsi	# tmp120,
	movq	%rax, %rdi	# tmp121,
	call	_ZNSt8__detailneERKNS_19_Node_iterator_baseISt4pairIKcSt8functionIFvR5WorldEEELb0EEESB_	#
# src/main.cc:1101:     if (map_callback.find(c) != map_callback.end()) {
	testb	%al, %al	# retval.26_42
	je	.L291	#,
# src/main.cc:1102:         map_callback[c](world);
	leaq	-230(%rbp), %rdx	#, tmp122
	leaq	-192(%rbp), %rax	#, tmp123
	movq	%rdx, %rsi	# tmp122,
	movq	%rax, %rdi	# tmp123,
	call	_ZNSt13unordered_mapIcSt8functionIFvR5WorldEESt4hashIcESt8equal_toIcESaISt4pairIKcS4_EEEixERSA_	#
	movq	%rax, %rdx	#, _3
# src/main.cc:1102:         map_callback[c](world);
	movq	-248(%rbp), %rax	# world, tmp124
	movq	%rax, %rsi	# tmp124,
	movq	%rdx, %rdi	# _3,
	call	_ZNKSt8functionIFvR5WorldEEclES1_	#
.LEHE28:
.L291:
# src/main.cc:1104: }
	leaq	-192(%rbp), %rax	#, tmp125
	movq	%rax, %rdi	# tmp125,
	call	_ZNSt13unordered_mapIcSt8functionIFvR5WorldEESt4hashIcESt8equal_toIcESaISt4pairIKcS4_EEED1Ev	#
	movq	-40(%rbp), %rax	# D.106030, tmp135
	subq	%fs:40, %rax	# MEM[(<address-space-1> long unsigned int *)40B], tmp135
	je	.L296	#,
	jmp	.L299	#
.L297:
	endbr64	
	movq	%rax, %rbx	#, tmp128
	leaq	-225(%rbp), %rax	#, tmp126
	movq	%rax, %rdi	# tmp126,
	call	_ZNSaISt4pairIKcSt8functionIFvR5WorldEEEED1Ev	#
	movq	%rbx, %r12	# tmp128, tmp127
# src/main.cc:1099:         };
	leaq	-128(%rbp), %rbx	#, _5
	addq	$80, %rbx	#, _5
.L294:
	leaq	-128(%rbp), %rax	#, tmp131
	cmpq	%rax, %rbx	# tmp131, _5
	je	.L293	#,
	subq	$40, %rbx	#, _5
	movq	%rbx, %rdi	# _5,
	call	_ZNSt4pairIKcSt8functionIFvR5WorldEEED1Ev	#
	jmp	.L294	#
.L293:
	movq	%r12, %rax	# tmp127, D.106027
	movq	%rax, %rdi	# D.106027,
.LEHB29:
	call	_Unwind_Resume@PLT	#
.L298:
	endbr64	
# src/main.cc:1104: }
	movq	%rax, %rbx	#, tmp133
	leaq	-192(%rbp), %rax	#, tmp132
	movq	%rax, %rdi	# tmp132,
	call	_ZNSt13unordered_mapIcSt8functionIFvR5WorldEESt4hashIcESt8equal_toIcESaISt4pairIKcS4_EEED1Ev	#
	movq	%rbx, %rax	# tmp133, D.106028
	movq	%rax, %rdi	# D.106028,
	call	_Unwind_Resume@PLT	#
.LEHE29:
.L299:
	call	__stack_chk_fail@PLT	#
.L296:
	leaq	-24(%rbp), %rsp	#,
	popq	%rbx	#
	popq	%r12	#
	popq	%r13	#
	popq	%rbp	#
	.cfi_def_cfa 7, 8
	ret	
	.cfi_endproc
.LFE2946:
	.section	.gcc_except_table,"a",@progbits
.LLSDA2946:
	.byte	0xff
	.byte	0xff
	.byte	0x1
	.uleb128 .LLSDACSE2946-.LLSDACSB2946
.LLSDACSB2946:
	.uleb128 .LEHB26-.LFB2946
	.uleb128 .LEHE26-.LEHB26
	.uleb128 0
	.uleb128 0
	.uleb128 .LEHB27-.LFB2946
	.uleb128 .LEHE27-.LEHB27
	.uleb128 .L297-.LFB2946
	.uleb128 0
	.uleb128 .LEHB28-.LFB2946
	.uleb128 .LEHE28-.LEHB28
	.uleb128 .L298-.LFB2946
	.uleb128 0
	.uleb128 .LEHB29-.LFB2946
	.uleb128 .LEHE29-.LEHB29
	.uleb128 0
	.uleb128 0
.LLSDACSE2946:
	.text
	.size	_Z9cbi_clearR5World, .-_Z9cbi_clearR5World
	.section	.text._ZNSt8functionIFvR5WorldjEED2Ev,"axG",@progbits,_ZNSt8functionIFvR5WorldjEED5Ev,comdat
	.align 2
	.weak	_ZNSt8functionIFvR5WorldjEED2Ev
	.type	_ZNSt8functionIFvR5WorldjEED2Ev, @function
_ZNSt8functionIFvR5WorldjEED2Ev:
.LFB2992:
	.cfi_startproc
	endbr64	
	pushq	%rbp	#
	.cfi_def_cfa_offset 16
	.cfi_offset 6, -16
	movq	%rsp, %rbp	#,
	.cfi_def_cfa_register 6
	subq	$16, %rsp	#,
	movq	%rdi, -8(%rbp)	# this, this
# /usr/include/c++/11/bits/std_function.h:334:     class function<_Res(_ArgTypes...)>
	movq	-8(%rbp), %rax	# this, _1
	movq	%rax, %rdi	# _1,
	call	_ZNSt14_Function_baseD2Ev	#
	nop	
	leave	
	.cfi_def_cfa 7, 8
	ret	
	.cfi_endproc
.LFE2992:
	.size	_ZNSt8functionIFvR5WorldjEED2Ev, .-_ZNSt8functionIFvR5WorldjEED2Ev
	.weak	_ZNSt8functionIFvR5WorldjEED1Ev
	.set	_ZNSt8functionIFvR5WorldjEED1Ev,_ZNSt8functionIFvR5WorldjEED2Ev
	.section	.text._ZNSt4pairIKcSt8functionIFvR5WorldjEEED2Ev,"axG",@progbits,_ZNSt4pairIKcSt8functionIFvR5WorldjEEED5Ev,comdat
	.align 2
	.weak	_ZNSt4pairIKcSt8functionIFvR5WorldjEEED2Ev
	.type	_ZNSt4pairIKcSt8functionIFvR5WorldjEEED2Ev, @function
_ZNSt4pairIKcSt8functionIFvR5WorldjEEED2Ev:
.LFB2994:
	.cfi_startproc
	endbr64	
	pushq	%rbp	#
	.cfi_def_cfa_offset 16
	.cfi_offset 6, -16
	movq	%rsp, %rbp	#,
	.cfi_def_cfa_register 6
	subq	$16, %rsp	#,
	movq	%rdi, -8(%rbp)	# this, this
# /usr/include/c++/11/bits/stl_pair.h:211:     struct pair
	movq	-8(%rbp), %rax	# this, tmp83
	addq	$8, %rax	#, _1
	movq	%rax, %rdi	# _1,
	call	_ZNSt8functionIFvR5WorldjEED1Ev	#
	nop	
	leave	
	.cfi_def_cfa 7, 8
	ret	
	.cfi_endproc
.LFE2994:
	.size	_ZNSt4pairIKcSt8functionIFvR5WorldjEEED2Ev, .-_ZNSt4pairIKcSt8functionIFvR5WorldjEEED2Ev
	.weak	_ZNSt4pairIKcSt8functionIFvR5WorldjEEED1Ev
	.set	_ZNSt4pairIKcSt8functionIFvR5WorldjEEED1Ev,_ZNSt4pairIKcSt8functionIFvR5WorldjEEED2Ev
	.section	.text._ZNSt4pairIKcSt8functionIFvR5WorldjEEEC1IcMS2_FvjELb1EEEOT_OT0_,"axG",@progbits,_ZNSt4pairIKcSt8functionIFvR5WorldjEEEC1IcMS2_FvjELb1EEEOT_OT0_,comdat
	.align 2
	.weak	_ZNSt4pairIKcSt8functionIFvR5WorldjEEEC1IcMS2_FvjELb1EEEOT_OT0_
	.type	_ZNSt4pairIKcSt8functionIFvR5WorldjEEEC1IcMS2_FvjELb1EEEOT_OT0_, @function
_ZNSt4pairIKcSt8functionIFvR5WorldjEEEC1IcMS2_FvjELb1EEEOT_OT0_:
.LFB2998:
	.cfi_startproc
	endbr64	
	pushq	%rbp	#
	.cfi_def_cfa_offset 16
	.cfi_offset 6, -16
	movq	%rsp, %rbp	#,
	.cfi_def_cfa_register 6
	pushq	%rbx	#
	subq	$40, %rsp	#,
	.cfi_offset 3, -24
	movq	%rdi, -24(%rbp)	# this, this
	movq	%rsi, -32(%rbp)	# __x, __x
	movq	%rdx, -40(%rbp)	# __y, __y
# /usr/include/c++/11/bits/stl_pair.h:353: 	: first(std::forward<_U1>(__x)), second(std::forward<_U2>(__y)) { }
	movq	-32(%rbp), %rax	# __x, tmp87
	movq	%rax, %rdi	# tmp87,
	call	_ZSt7forwardIcEOT_RNSt16remove_referenceIS0_E4typeE	#
# /usr/include/c++/11/bits/stl_pair.h:353: 	: first(std::forward<_U1>(__x)), second(std::forward<_U2>(__y)) { }
	movzbl	(%rax), %edx	# *_1, _2
	movq	-24(%rbp), %rax	# this, tmp88
	movb	%dl, (%rax)	# _2, this_7(D)->first
# /usr/include/c++/11/bits/stl_pair.h:353: 	: first(std::forward<_U1>(__x)), second(std::forward<_U2>(__y)) { }
	movq	-24(%rbp), %rax	# this, tmp89
	leaq	8(%rax), %rbx	#, _3
	movq	-40(%rbp), %rax	# __y, tmp90
	movq	%rax, %rdi	# tmp90,
	call	_ZSt7forwardIM5WorldFvjEEOT_RNSt16remove_referenceIS3_E4typeE	#
	movq	%rax, %rsi	# _4,
	movq	%rbx, %rdi	# _3,
	call	_ZNSt8functionIFvR5WorldjEEC1IMS0_FvjEvEEOT_	#
# /usr/include/c++/11/bits/stl_pair.h:353: 	: first(std::forward<_U1>(__x)), second(std::forward<_U2>(__y)) { }
	nop	
	movq	-8(%rbp), %rbx	#,
	leave	
	.cfi_def_cfa 7, 8
	ret	
	.cfi_endproc
.LFE2998:
	.size	_ZNSt4pairIKcSt8functionIFvR5WorldjEEEC1IcMS2_FvjELb1EEEOT_OT0_, .-_ZNSt4pairIKcSt8functionIFvR5WorldjEEEC1IcMS2_FvjELb1EEEOT_OT0_
	.section	.text._ZNSt13unordered_mapIcSt8functionIFvR5WorldjEESt4hashIcESt8equal_toIcESaISt4pairIKcS4_EEED2Ev,"axG",@progbits,_ZNSt13unordered_mapIcSt8functionIFvR5WorldjEESt4hashIcESt8equal_toIcESaISt4pairIKcS4_EEED5Ev,comdat
	.align 2
	.weak	_ZNSt13unordered_mapIcSt8functionIFvR5WorldjEESt4hashIcESt8equal_toIcESaISt4pairIKcS4_EEED2Ev
	.type	_ZNSt13unordered_mapIcSt8functionIFvR5WorldjEESt4hashIcESt8equal_toIcESaISt4pairIKcS4_EEED2Ev, @function
_ZNSt13unordered_mapIcSt8functionIFvR5WorldjEESt4hashIcESt8equal_toIcESaISt4pairIKcS4_EEED2Ev:
.LFB3000:
	.cfi_startproc
	endbr64	
	pushq	%rbp	#
	.cfi_def_cfa_offset 16
	.cfi_offset 6, -16
	movq	%rsp, %rbp	#,
	.cfi_def_cfa_register 6
	subq	$16, %rsp	#,
	movq	%rdi, -8(%rbp)	# this, this
# /usr/include/c++/11/bits/unordered_map.h:102:     class unordered_map
	movq	-8(%rbp), %rax	# this, _1
	movq	%rax, %rdi	# _1,
	call	_ZNSt10_HashtableIcSt4pairIKcSt8functionIFvR5WorldjEEESaIS7_ENSt8__detail10_Select1stESt8equal_toIcESt4hashIcENS9_18_Mod_range_hashingENS9_20_Default_ranged_hashENS9_20_Prime_rehash_policyENS9_17_Hashtable_traitsILb0ELb0ELb1EEEED1Ev	#
	nop	
	leave	
	.cfi_def_cfa 7, 8
	ret	
	.cfi_endproc
.LFE3000:
